
/mnt/c/Users/jackz/OneDrive/Desktop/hardware/ece362/ram_loader_test/build/game/demo_game.elf:     file format elf32-littlearm

Sections:
Idx Name          Size      VMA       LMA       File off  Algn
  0 .text         00001c74  20040000  20040000  00001000  2**3
                  CONTENTS, ALLOC, LOAD, READONLY, CODE
  1 .rodata       00000090  20041c74  20041c74  00002c74  2**2
                  CONTENTS, ALLOC, LOAD, READONLY, DATA
  2 .binary_info  00000014  20041d04  20041d04  00002d04  2**2
                  CONTENTS, ALLOC, LOAD, READONLY, DATA
  3 .data         000000a4  20041d18  20041d18  00002d18  2**2
                  CONTENTS, ALLOC, LOAD, DATA
  4 .tdata        00000000  20041dbc  20041dbc  00002dbc  2**0
                  CONTENTS, ALLOC, LOAD, DATA, THREAD_LOCAL
  5 .uninitialized_data 00000000  20041dbc  20041dbc  00002dbc  2**0
                  CONTENTS
  6 .tbss         00000000  20041dbc  20041dbc  00000000  2**0
                  ALLOC, THREAD_LOCAL
  7 .bss          00000218  20041dc0  20041dc0  00002dbc  2**3
                  ALLOC
  8 .heap         00000800  20041fd8  20041fd8  00002dbc  2**2
                  ALLOC, READONLY
  9 .scratch_x    00000000  20080000  20080000  00002dbc  2**0
                  CONTENTS
 10 .scratch_y    00000000  20081000  20081000  00002dbc  2**0
                  CONTENTS
 11 .stack_dummy  00000800  2007c000  2007c000  00003000  2**5
                  ALLOC, READONLY
 12 .debug_info   0001cc5f  00000000  00000000  00002dbc  2**0
                  CONTENTS, READONLY, DEBUGGING, OCTETS
 13 .debug_abbrev 00004ff8  00000000  00000000  0001fa1b  2**0
                  CONTENTS, READONLY, DEBUGGING, OCTETS
 14 .debug_loclists 0000e8b8  00000000  00000000  00024a13  2**0
                  CONTENTS, READONLY, DEBUGGING, OCTETS
 15 .debug_aranges 00000a58  00000000  00000000  000332d0  2**3
                  CONTENTS, READONLY, DEBUGGING, OCTETS
 16 .debug_rnglists 00002ad8  00000000  00000000  00033d28  2**0
                  CONTENTS, READONLY, DEBUGGING, OCTETS
 17 .debug_line   00011950  00000000  00000000  00036800  2**0
                  CONTENTS, READONLY, DEBUGGING, OCTETS
 18 .debug_str    00004ece  00000000  00000000  00048150  2**0
                  CONTENTS, READONLY, DEBUGGING, OCTETS
 19 .comment      00000026  00000000  00000000  0004d01e  2**0
                  CONTENTS, READONLY
 20 .ARM.attributes 00000036  00000000  00000000  0004d044  2**0
                  CONTENTS, READONLY
 21 .debug_frame  00001c98  00000000  00000000  0004d07c  2**2
                  CONTENTS, READONLY, DEBUGGING, OCTETS
 22 .debug_line_str 0000007f  00000000  00000000  0004ed14  2**0
                  CONTENTS, READONLY, DEBUGGING, OCTETS

/mnt/c/Users/jackz/OneDrive/Desktop/hardware/ece362/ram_loader_test/build/game/demo_game.elf:     file format elf32-littlearm


Disassembly of section .text:

20040000 <__VECTOR_TABLE>:
20040000:	20080000 	.word	0x20080000
20040004:	200401ad 	.word	0x200401ad
20040008:	2004011b 	.word	0x2004011b
2004000c:	2004011d 	.word	0x2004011d
20040010:	20040111 	.word	0x20040111
20040014:	20040111 	.word	0x20040111
20040018:	20040111 	.word	0x20040111
2004001c:	20040111 	.word	0x20040111
20040020:	20040119 	.word	0x20040119
20040024:	20040119 	.word	0x20040119
20040028:	20040119 	.word	0x20040119
2004002c:	2004011f 	.word	0x2004011f
20040030:	20040111 	.word	0x20040111
20040034:	20040119 	.word	0x20040119
20040038:	20040121 	.word	0x20040121
2004003c:	20040123 	.word	0x20040123
20040040:	20040111 	.word	0x20040111
20040044:	20040111 	.word	0x20040111
20040048:	20040111 	.word	0x20040111
2004004c:	20040111 	.word	0x20040111
20040050:	20040111 	.word	0x20040111
20040054:	20040111 	.word	0x20040111
20040058:	20040111 	.word	0x20040111
2004005c:	20040111 	.word	0x20040111
20040060:	20040111 	.word	0x20040111
20040064:	20040111 	.word	0x20040111
20040068:	20040111 	.word	0x20040111
2004006c:	20040111 	.word	0x20040111
20040070:	20040111 	.word	0x20040111
20040074:	20040111 	.word	0x20040111
20040078:	20040111 	.word	0x20040111
2004007c:	20040111 	.word	0x20040111
20040080:	20040111 	.word	0x20040111
20040084:	20040111 	.word	0x20040111
20040088:	20040111 	.word	0x20040111
2004008c:	20040111 	.word	0x20040111
20040090:	20040111 	.word	0x20040111
20040094:	20040111 	.word	0x20040111
20040098:	20040111 	.word	0x20040111
2004009c:	20040111 	.word	0x20040111
200400a0:	20040111 	.word	0x20040111
200400a4:	20040111 	.word	0x20040111
200400a8:	20040111 	.word	0x20040111
200400ac:	20040111 	.word	0x20040111
200400b0:	20040111 	.word	0x20040111
200400b4:	20040111 	.word	0x20040111
200400b8:	20040111 	.word	0x20040111
200400bc:	20040111 	.word	0x20040111
200400c0:	20040111 	.word	0x20040111
200400c4:	20040111 	.word	0x20040111
200400c8:	20040111 	.word	0x20040111
200400cc:	20040111 	.word	0x20040111
200400d0:	20040111 	.word	0x20040111
200400d4:	20040111 	.word	0x20040111
200400d8:	20040111 	.word	0x20040111
200400dc:	20040111 	.word	0x20040111
200400e0:	20040111 	.word	0x20040111
200400e4:	20040111 	.word	0x20040111
200400e8:	20040111 	.word	0x20040111
200400ec:	20040111 	.word	0x20040111
200400f0:	20040111 	.word	0x20040111
200400f4:	20040111 	.word	0x20040111
200400f8:	20040111 	.word	0x20040111
200400fc:	20040111 	.word	0x20040111
20040100:	20040111 	.word	0x20040111
20040104:	20040111 	.word	0x20040111
20040108:	20040111 	.word	0x20040111
2004010c:	20040111 	.word	0x20040111

20040110 <__unhandled_user_irq>:
20040110:	f3ef 8005 	mrs	r0, IPSR
20040114:	3810      	subs	r0, #16

20040116 <unhandled_user_irq_num_in_r0>:
20040116:	be00      	bkpt	0x0000

20040118 <isr_invalid>:
20040118:	be00      	bkpt	0x0000

2004011a <isr_nmi>:
2004011a:	be00      	bkpt	0x0000

2004011c <isr_hardfault>:
2004011c:	be00      	bkpt	0x0000

2004011e <isr_svcall>:
2004011e:	be00      	bkpt	0x0000

20040120 <isr_pendsv>:
20040120:	be00      	bkpt	0x0000

20040122 <isr_systick>:
20040122:	be00      	bkpt	0x0000

20040124 <__bi_54>:
20040124:	0006 5052 b3ab 5360 1cc0 2004               ..RP..`S... 

20040130 <__bi_42>:
20040130:	0006 5052 1c86 0203 1cd0 2004               ..RP....... 

2004013c <__bi_34>:
2004013c:	0006 5052 2254 9da2 1cdc 2004               ..RPT"..... 

20040148 <binary_info_header>:
20040148:	7188ebf2 	.word	0x7188ebf2
2004014c:	20041d04 	.word	0x20041d04
20040150:	20041d18 	.word	0x20041d18
20040154:	200401d8 	.word	0x200401d8
20040158:	e71aa390 	.word	0xe71aa390

2004015c <my_header>:
2004015c:	454d4147 200403f1                       GAME... 

20040164 <embedded_block>:
20040164:	ffffded3 	.word	0xffffded3
20040168:	10210142 	.word	0x10210142
2004016c:	00000203 	.word	0x00000203
20040170:	20040000 	.word	0x20040000
20040174:	000003ff 	.word	0x000003ff
20040178:	00000000 	.word	0x00000000
2004017c:	ab123579 	.word	0xab123579

20040180 <_entry_point>:
20040180:	4820      	ldr	r0, [pc, #128]	@ (20040204 <data_cpy_table+0x2c>)
20040182:	f45f 4140 	movs.w	r1, #49152	@ 0xc000
20040186:	6001      	str	r1, [r0, #0]
20040188:	ee30 f710 	rcp_canary_status APSR_nzcv, delay
2004018c:	d404      	bmi.n	20040198 <_entry_point+0x18>
2004018e:	ec40 0780 	rcp_salt_core0 r0, r0, delay
20040192:	ec40 0781 	rcp_salt_core1 r0, r0, delay
20040196:	bf40      	sev
20040198:	2000      	movs	r0, #0
2004019a:	f380 880a 	msr	MSPLIM, r0
2004019e:	481a      	ldr	r0, [pc, #104]	@ (20040208 <data_cpy_table+0x30>)

200401a0 <_enter_vtable_in_r0>:
200401a0:	491a      	ldr	r1, [pc, #104]	@ (2004020c <data_cpy_table+0x34>)
200401a2:	6008      	str	r0, [r1, #0]
200401a4:	c806      	ldmia	r0!, {r1, r2}
200401a6:	f381 8808 	msr	MSP, r1
200401aa:	4710      	bx	r2

200401ac <_reset_handler>:
200401ac:	f04f 4050 	mov.w	r0, #3489660928	@ 0xd0000000
200401b0:	6800      	ldr	r0, [r0, #0]
200401b2:	b110      	cbz	r0, 200401ba <hold_non_core0_in_bootrom+0x6>

200401b4 <hold_non_core0_in_bootrom>:
200401b4:	f04f 0000 	mov.w	r0, #0
200401b8:	e7f2      	b.n	200401a0 <_enter_vtable_in_r0>
200401ba:	4915      	ldr	r1, [pc, #84]	@ (20040210 <data_cpy_table+0x38>)
200401bc:	4a15      	ldr	r2, [pc, #84]	@ (20040214 <data_cpy_table+0x3c>)
200401be:	2000      	movs	r0, #0
200401c0:	e000      	b.n	200401c4 <bss_fill_test>

200401c2 <bss_fill_loop>:
200401c2:	c101      	stmia	r1!, {r0}

200401c4 <bss_fill_test>:
200401c4:	4291      	cmp	r1, r2
200401c6:	d1fc      	bne.n	200401c2 <bss_fill_loop>

200401c8 <platform_entry>:
200401c8:	4913      	ldr	r1, [pc, #76]	@ (20040218 <data_cpy_table+0x40>)
200401ca:	4788      	blx	r1
200401cc:	4913      	ldr	r1, [pc, #76]	@ (2004021c <data_cpy_table+0x44>)
200401ce:	4788      	blx	r1
200401d0:	4913      	ldr	r1, [pc, #76]	@ (20040220 <data_cpy_table+0x48>)
200401d2:	4788      	blx	r1
200401d4:	be00      	bkpt	0x0000
200401d6:	e7fd      	b.n	200401d4 <platform_entry+0xc>

200401d8 <data_cpy_table>:
200401d8:	20041d18 	.word	0x20041d18
200401dc:	20041d18 	.word	0x20041d18
200401e0:	20041dbc 	.word	0x20041dbc
200401e4:	20080000 	.word	0x20080000
200401e8:	20080000 	.word	0x20080000
200401ec:	20080000 	.word	0x20080000
200401f0:	20081000 	.word	0x20081000
200401f4:	20081000 	.word	0x20081000
200401f8:	20081000 	.word	0x20081000
200401fc:	00000000 	.word	0x00000000
20040200:	4770      	bx	lr
20040202:	0000      	.short	0x0000
20040204:	e000ed88 	.word	0xe000ed88
20040208:	20040000 	.word	0x20040000
2004020c:	e000ed08 	.word	0xe000ed08
20040210:	20041dbc 	.word	0x20041dbc
20040214:	20041fd8 	.word	0x20041fd8
20040218:	200418ed 	.word	0x200418ed
2004021c:	20040385 	.word	0x20040385
20040220:	200418e5 	.word	0x200418e5

20040224 <mutex_enter_block_until>:
20040224:	f04f 4150 	mov.w	r1, #3489660928	@ 0xd0000000
20040228:	e92d 41f0 	stmdb	sp!, {r4, r5, r6, r7, r8, lr}
2004022c:	2700      	movs	r7, #0
2004022e:	4604      	mov	r4, r0
20040230:	4616      	mov	r6, r2
20040232:	461d      	mov	r5, r3
20040234:	f8d1 8000 	ldr.w	r8, [r1]
20040238:	e009      	b.n	2004024e <mutex_enter_block_until+0x2a>
2004023a:	6823      	ldr	r3, [r4, #0]
2004023c:	e8c3 7f8f 	stlb	r7, [r3]
20040240:	f38c 8810 	msr	PRIMASK, ip
20040244:	4630      	mov	r0, r6
20040246:	4629      	mov	r1, r5
20040248:	f001 f8c6 	bl	200413d8 <best_effort_wfe_or_timeout>
2004024c:	b9f0      	cbnz	r0, 2004028c <mutex_enter_block_until+0x68>
2004024e:	6821      	ldr	r1, [r4, #0]
20040250:	f3ef 8c10 	mrs	ip, PRIMASK
20040254:	b672      	cpsid	i
20040256:	e8d1 2fcf 	ldaexb	r2, [r1]
2004025a:	2301      	movs	r3, #1
2004025c:	2a00      	cmp	r2, #0
2004025e:	d1fa      	bne.n	20040256 <mutex_enter_block_until+0x32>
20040260:	e8c1 3f42 	strexb	r2, r3, [r1]
20040264:	2a00      	cmp	r2, #0
20040266:	d1f6      	bne.n	20040256 <mutex_enter_block_until+0x32>
20040268:	f3bf 8f5f 	dmb	sy
2004026c:	f994 e004 	ldrsb.w	lr, [r4, #4]
20040270:	f1be 0f00 	cmp.w	lr, #0
20040274:	dae1      	bge.n	2004023a <mutex_enter_block_until+0x16>
20040276:	2300      	movs	r3, #0
20040278:	6822      	ldr	r2, [r4, #0]
2004027a:	f884 8004 	strb.w	r8, [r4, #4]
2004027e:	e8c2 3f8f 	stlb	r3, [r2]
20040282:	f38c 8810 	msr	PRIMASK, ip
20040286:	2001      	movs	r0, #1
20040288:	e8bd 81f0 	ldmia.w	sp!, {r4, r5, r6, r7, r8, pc}
2004028c:	2000      	movs	r0, #0
2004028e:	e8bd 81f0 	ldmia.w	sp!, {r4, r5, r6, r7, r8, pc}
20040292:	bf00      	nop

20040294 <mutex_try_enter_block_until>:
20040294:	b530      	push	{r4, r5, lr}
20040296:	4601      	mov	r1, r0
20040298:	6804      	ldr	r4, [r0, #0]
2004029a:	f3ef 8c10 	mrs	ip, PRIMASK
2004029e:	b672      	cpsid	i
200402a0:	e8d4 efcf 	ldaexb	lr, [r4]
200402a4:	2501      	movs	r5, #1
200402a6:	f1be 0f00 	cmp.w	lr, #0
200402aa:	d1f9      	bne.n	200402a0 <mutex_try_enter_block_until+0xc>
200402ac:	e8c4 5f4e 	strexb	lr, r5, [r4]
200402b0:	f1be 0f00 	cmp.w	lr, #0
200402b4:	d1f4      	bne.n	200402a0 <mutex_try_enter_block_until+0xc>
200402b6:	f3bf 8f5f 	dmb	sy
200402ba:	f990 4004 	ldrsb.w	r4, [r0, #4]
200402be:	2c00      	cmp	r4, #0
200402c0:	db11      	blt.n	200402e6 <mutex_try_enter_block_until+0x52>
200402c2:	2100      	movs	r1, #0
200402c4:	6805      	ldr	r5, [r0, #0]
200402c6:	e8c5 1f8f 	stlb	r1, [r5]
200402ca:	f38c 8810 	msr	PRIMASK, ip
200402ce:	f04f 4c50 	mov.w	ip, #3489660928	@ 0xd0000000
200402d2:	f99c c000 	ldrsb.w	ip, [ip]
200402d6:	45a4      	cmp	ip, r4
200402d8:	d101      	bne.n	200402de <mutex_try_enter_block_until+0x4a>
200402da:	4608      	mov	r0, r1
200402dc:	bd30      	pop	{r4, r5, pc}
200402de:	e8bd 4030 	ldmia.w	sp!, {r4, r5, lr}
200402e2:	f7ff bf9f 	b.w	20040224 <mutex_enter_block_until>
200402e6:	f04f 4050 	mov.w	r0, #3489660928	@ 0xd0000000
200402ea:	6800      	ldr	r0, [r0, #0]
200402ec:	2300      	movs	r3, #0
200402ee:	680a      	ldr	r2, [r1, #0]
200402f0:	7108      	strb	r0, [r1, #4]
200402f2:	e8c2 3f8f 	stlb	r3, [r2]
200402f6:	f38c 8810 	msr	PRIMASK, ip
200402fa:	2001      	movs	r0, #1
200402fc:	bd30      	pop	{r4, r5, pc}
200402fe:	bf00      	nop

20040300 <mutex_exit>:
20040300:	6803      	ldr	r3, [r0, #0]
20040302:	f3ef 8210 	mrs	r2, PRIMASK
20040306:	b672      	cpsid	i
20040308:	e8d3 cfcf 	ldaexb	ip, [r3]
2004030c:	2101      	movs	r1, #1
2004030e:	f1bc 0f00 	cmp.w	ip, #0
20040312:	d1f9      	bne.n	20040308 <mutex_exit+0x8>
20040314:	e8c3 1f4c 	strexb	ip, r1, [r3]
20040318:	f1bc 0f00 	cmp.w	ip, #0
2004031c:	d1f4      	bne.n	20040308 <mutex_exit+0x8>
2004031e:	f3bf 8f5f 	dmb	sy
20040322:	f04f 0cff 	mov.w	ip, #255	@ 0xff
20040326:	2300      	movs	r3, #0
20040328:	6801      	ldr	r1, [r0, #0]
2004032a:	f880 c004 	strb.w	ip, [r0, #4]
2004032e:	e8c1 3f8f 	stlb	r3, [r1]
20040332:	f382 8810 	msr	PRIMASK, r2
20040336:	bf40      	sev
20040338:	4770      	bx	lr
2004033a:	bf00      	nop

2004033c <button_callback>:
2004033c:	2815      	cmp	r0, #21
2004033e:	d000      	beq.n	20040342 <button_callback+0x6>
20040340:	4770      	bx	lr
20040342:	b5f8      	push	{r3, r4, r5, r6, r7, lr}
20040344:	f001 f8c0 	bl	200414c8 <time_us_64>
20040348:	f04f 0c00 	mov.w	ip, #0
2004034c:	4c0a      	ldr	r4, [pc, #40]	@ (20040378 <button_callback+0x3c>)
2004034e:	4d0b      	ldr	r5, [pc, #44]	@ (2004037c <button_callback+0x40>)
20040350:	e9d4 6700 	ldrd	r6, r7, [r4]
20040354:	4602      	mov	r2, r0
20040356:	1b80      	subs	r0, r0, r6
20040358:	468e      	mov	lr, r1
2004035a:	460b      	mov	r3, r1
2004035c:	eb61 0107 	sbc.w	r1, r1, r7
20040360:	4285      	cmp	r5, r0
20040362:	eb7c 0c01 	sbcs.w	ip, ip, r1
20040366:	d206      	bcs.n	20040376 <button_callback+0x3a>
20040368:	4805      	ldr	r0, [pc, #20]	@ (20040380 <button_callback+0x44>)
2004036a:	7801      	ldrb	r1, [r0, #0]
2004036c:	f081 0101 	eor.w	r1, r1, #1
20040370:	7001      	strb	r1, [r0, #0]
20040372:	e9c4 2300 	strd	r2, r3, [r4]
20040376:	bdf8      	pop	{r3, r4, r5, r6, r7, pc}
20040378:	20041f40 	.word	0x20041f40
2004037c:	000186a0 	.word	0x000186a0
20040380:	20041d18 	.word	0x20041d18

20040384 <main>:
20040384:	b580      	push	{r7, lr}
20040386:	2017      	movs	r0, #23
20040388:	f000 f98c 	bl	200406a4 <gpio_init>
2004038c:	2417      	movs	r4, #23
2004038e:	f04f 0701 	mov.w	r7, #1
20040392:	ec47 4044 	gpioc_bit_oe_put r4, r7
20040396:	2015      	movs	r0, #21
20040398:	f000 f984 	bl	200406a4 <gpio_init>
2004039c:	2615      	movs	r6, #21
2004039e:	f04f 0500 	mov.w	r5, #0
200403a2:	ec45 6044 	gpioc_bit_oe_put r6, r5
200403a6:	2201      	movs	r2, #1
200403a8:	4630      	mov	r0, r6
200403aa:	2100      	movs	r1, #0
200403ac:	f000 f910 	bl	200405d0 <gpio_set_pulls>
200403b0:	4630      	mov	r0, r6
200403b2:	2201      	movs	r2, #1
200403b4:	2108      	movs	r1, #8
200403b6:	4b0c      	ldr	r3, [pc, #48]	@ (200403e8 <main+0x64>)
200403b8:	f000 f91e 	bl	200405f8 <gpio_set_irq_enabled_with_callback>
200403bc:	4e0b      	ldr	r6, [pc, #44]	@ (200403ec <main+0x68>)
200403be:	7833      	ldrb	r3, [r6, #0]
200403c0:	b163      	cbz	r3, 200403dc <main+0x58>
200403c2:	ec47 4040 	gpioc_bit_out_put r4, r7
200403c6:	20fa      	movs	r0, #250	@ 0xfa
200403c8:	f000 fff0 	bl	200413ac <sleep_ms>
200403cc:	ec45 4040 	gpioc_bit_out_put r4, r5
200403d0:	20fa      	movs	r0, #250	@ 0xfa
200403d2:	f000 ffeb 	bl	200413ac <sleep_ms>
200403d6:	7833      	ldrb	r3, [r6, #0]
200403d8:	2b00      	cmp	r3, #0
200403da:	d1f2      	bne.n	200403c2 <main+0x3e>
200403dc:	ec45 4040 	gpioc_bit_out_put r4, r5
200403e0:	2032      	movs	r0, #50	@ 0x32
200403e2:	f000 ffe3 	bl	200413ac <sleep_ms>
200403e6:	e7ea      	b.n	200403be <main+0x3a>
200403e8:	2004033d 	.word	0x2004033d
200403ec:	20041d18 	.word	0x20041d18

200403f0 <core1_startup>:
200403f0:	4808      	ldr	r0, [pc, #32]	@ (20040414 <core1_startup+0x24>)
200403f2:	4a09      	ldr	r2, [pc, #36]	@ (20040418 <core1_startup+0x28>)
200403f4:	b508      	push	{r3, lr}
200403f6:	4290      	cmp	r0, r2
200403f8:	d207      	bcs.n	2004040a <core1_startup+0x1a>
200403fa:	3a01      	subs	r2, #1
200403fc:	1a12      	subs	r2, r2, r0
200403fe:	f022 0203 	bic.w	r2, r2, #3
20040402:	2100      	movs	r1, #0
20040404:	3204      	adds	r2, #4
20040406:	f001 fbb5 	bl	20041b74 <memset>
2004040a:	f001 fa6f 	bl	200418ec <runtime_init>
2004040e:	f7ff ffb9 	bl	20040384 <main>
20040412:	bf00      	nop
20040414:	20041dbc 	.word	0x20041dbc
20040418:	20041fd8 	.word	0x20041fd8

2004041c <gpio_default_irq_handler>:
2004041c:	f04f 4050 	mov.w	r0, #3489660928	@ 0xd0000000
20040420:	e92d 4ff8 	stmdb	sp!, {r3, r4, r5, r6, r7, r8, r9, sl, fp, lr}
20040424:	4965      	ldr	r1, [pc, #404]	@ (200405bc <gpio_default_irq_handler+0x1a0>)
20040426:	f8d0 a000 	ldr.w	sl, [r0]
2004042a:	4a65      	ldr	r2, [pc, #404]	@ (200405c0 <gpio_default_irq_handler+0x1a4>)
2004042c:	4b65      	ldr	r3, [pc, #404]	@ (200405c4 <gpio_default_irq_handler+0x1a8>)
2004042e:	f851 702a 	ldr.w	r7, [r1, sl, lsl #2]
20040432:	f1ba 0f00 	cmp.w	sl, #0
20040436:	bf0c      	ite	eq
20040438:	4690      	moveq	r8, r2
2004043a:	4698      	movne	r8, r3
2004043c:	b34f      	cbz	r7, 20040492 <gpio_default_irq_handler+0x76>
2004043e:	2600      	movs	r6, #0
20040440:	f8df b184 	ldr.w	fp, [pc, #388]	@ 200405c8 <gpio_default_irq_handler+0x1ac>
20040444:	f8df 9184 	ldr.w	r9, [pc, #388]	@ 200405cc <gpio_default_irq_handler+0x1b0>
20040448:	08f3      	lsrs	r3, r6, #3
2004044a:	330c      	adds	r3, #12
2004044c:	f858 4023 	ldr.w	r4, [r8, r3, lsl #2]
20040450:	4635      	mov	r5, r6
20040452:	3608      	adds	r6, #8
20040454:	b1cc      	cbz	r4, 2004048a <gpio_default_irq_handler+0x6e>
20040456:	f014 010f 	ands.w	r1, r4, #15
2004045a:	d010      	beq.n	2004047e <gpio_default_irq_handler+0x62>
2004045c:	f85b 202a 	ldr.w	r2, [fp, sl, lsl #2]
20040460:	f005 0307 	and.w	r3, r5, #7
20040464:	40ea      	lsrs	r2, r5
20040466:	08e8      	lsrs	r0, r5, #3
20040468:	009b      	lsls	r3, r3, #2
2004046a:	07d2      	lsls	r2, r2, #31
2004046c:	fa01 f303 	lsl.w	r3, r1, r3
20040470:	f100 0c8c 	add.w	ip, r0, #140	@ 0x8c
20040474:	d403      	bmi.n	2004047e <gpio_default_irq_handler+0x62>
20040476:	4628      	mov	r0, r5
20040478:	f849 302c 	str.w	r3, [r9, ip, lsl #2]
2004047c:	47b8      	blx	r7
2004047e:	0924      	lsrs	r4, r4, #4
20040480:	f105 0501 	add.w	r5, r5, #1
20040484:	d001      	beq.n	2004048a <gpio_default_irq_handler+0x6e>
20040486:	42b5      	cmp	r5, r6
20040488:	d3e5      	bcc.n	20040456 <gpio_default_irq_handler+0x3a>
2004048a:	2e20      	cmp	r6, #32
2004048c:	d1dc      	bne.n	20040448 <gpio_default_irq_handler+0x2c>
2004048e:	e8bd 8ff8 	ldmia.w	sp!, {r3, r4, r5, r6, r7, r8, r9, sl, fp, pc}
20040492:	484d      	ldr	r0, [pc, #308]	@ (200405c8 <gpio_default_irq_handler+0x1ac>)
20040494:	08f9      	lsrs	r1, r7, #3
20040496:	f101 030c 	add.w	r3, r1, #12
2004049a:	f858 3023 	ldr.w	r3, [r8, r3, lsl #2]
2004049e:	463a      	mov	r2, r7
200404a0:	3708      	adds	r7, #8
200404a2:	2b00      	cmp	r3, #0
200404a4:	d071      	beq.n	2004058a <gpio_default_irq_handler+0x16e>
200404a6:	f013 050f 	ands.w	r5, r3, #15
200404aa:	d008      	beq.n	200404be <gpio_default_irq_handler+0xa2>
200404ac:	f850 402a 	ldr.w	r4, [r0, sl, lsl #2]
200404b0:	40d4      	lsrs	r4, r2
200404b2:	07e4      	lsls	r4, r4, #31
200404b4:	d403      	bmi.n	200404be <gpio_default_irq_handler+0xa2>
200404b6:	4c45      	ldr	r4, [pc, #276]	@ (200405cc <gpio_default_irq_handler+0x1b0>)
200404b8:	318c      	adds	r1, #140	@ 0x8c
200404ba:	f844 5021 	str.w	r5, [r4, r1, lsl #2]
200404be:	0919      	lsrs	r1, r3, #4
200404c0:	d063      	beq.n	2004058a <gpio_default_irq_handler+0x16e>
200404c2:	f011 010f 	ands.w	r1, r1, #15
200404c6:	d00b      	beq.n	200404e0 <gpio_default_irq_handler+0xc4>
200404c8:	f850 402a 	ldr.w	r4, [r0, sl, lsl #2]
200404cc:	1c55      	adds	r5, r2, #1
200404ce:	40ec      	lsrs	r4, r5
200404d0:	07e6      	lsls	r6, r4, #31
200404d2:	d405      	bmi.n	200404e0 <gpio_default_irq_handler+0xc4>
200404d4:	08ec      	lsrs	r4, r5, #3
200404d6:	4d3d      	ldr	r5, [pc, #244]	@ (200405cc <gpio_default_irq_handler+0x1b0>)
200404d8:	0109      	lsls	r1, r1, #4
200404da:	348c      	adds	r4, #140	@ 0x8c
200404dc:	f845 1024 	str.w	r1, [r5, r4, lsl #2]
200404e0:	0a19      	lsrs	r1, r3, #8
200404e2:	d052      	beq.n	2004058a <gpio_default_irq_handler+0x16e>
200404e4:	f011 010f 	ands.w	r1, r1, #15
200404e8:	d00b      	beq.n	20040502 <gpio_default_irq_handler+0xe6>
200404ea:	f850 402a 	ldr.w	r4, [r0, sl, lsl #2]
200404ee:	1c95      	adds	r5, r2, #2
200404f0:	40ec      	lsrs	r4, r5
200404f2:	07e4      	lsls	r4, r4, #31
200404f4:	d405      	bmi.n	20040502 <gpio_default_irq_handler+0xe6>
200404f6:	08ec      	lsrs	r4, r5, #3
200404f8:	4d34      	ldr	r5, [pc, #208]	@ (200405cc <gpio_default_irq_handler+0x1b0>)
200404fa:	0209      	lsls	r1, r1, #8
200404fc:	348c      	adds	r4, #140	@ 0x8c
200404fe:	f845 1024 	str.w	r1, [r5, r4, lsl #2]
20040502:	0b19      	lsrs	r1, r3, #12
20040504:	d041      	beq.n	2004058a <gpio_default_irq_handler+0x16e>
20040506:	f011 010f 	ands.w	r1, r1, #15
2004050a:	d005      	beq.n	20040518 <gpio_default_irq_handler+0xfc>
2004050c:	f850 402a 	ldr.w	r4, [r0, sl, lsl #2]
20040510:	1cd5      	adds	r5, r2, #3
20040512:	40ec      	lsrs	r4, r5
20040514:	07e6      	lsls	r6, r4, #31
20040516:	d53c      	bpl.n	20040592 <gpio_default_irq_handler+0x176>
20040518:	0c19      	lsrs	r1, r3, #16
2004051a:	d036      	beq.n	2004058a <gpio_default_irq_handler+0x16e>
2004051c:	f011 010f 	ands.w	r1, r1, #15
20040520:	d006      	beq.n	20040530 <gpio_default_irq_handler+0x114>
20040522:	4c29      	ldr	r4, [pc, #164]	@ (200405c8 <gpio_default_irq_handler+0x1ac>)
20040524:	f854 502a 	ldr.w	r5, [r4, sl, lsl #2]
20040528:	1d14      	adds	r4, r2, #4
2004052a:	40e5      	lsrs	r5, r4
2004052c:	07ed      	lsls	r5, r5, #31
2004052e:	d537      	bpl.n	200405a0 <gpio_default_irq_handler+0x184>
20040530:	0d19      	lsrs	r1, r3, #20
20040532:	d02a      	beq.n	2004058a <gpio_default_irq_handler+0x16e>
20040534:	f011 010f 	ands.w	r1, r1, #15
20040538:	d006      	beq.n	20040548 <gpio_default_irq_handler+0x12c>
2004053a:	4c23      	ldr	r4, [pc, #140]	@ (200405c8 <gpio_default_irq_handler+0x1ac>)
2004053c:	f854 502a 	ldr.w	r5, [r4, sl, lsl #2]
20040540:	1d54      	adds	r4, r2, #5
20040542:	40e5      	lsrs	r5, r4
20040544:	07ee      	lsls	r6, r5, #31
20040546:	d532      	bpl.n	200405ae <gpio_default_irq_handler+0x192>
20040548:	0e19      	lsrs	r1, r3, #24
2004054a:	d01e      	beq.n	2004058a <gpio_default_irq_handler+0x16e>
2004054c:	f011 010f 	ands.w	r1, r1, #15
20040550:	d00c      	beq.n	2004056c <gpio_default_irq_handler+0x150>
20040552:	4c1d      	ldr	r4, [pc, #116]	@ (200405c8 <gpio_default_irq_handler+0x1ac>)
20040554:	f854 502a 	ldr.w	r5, [r4, sl, lsl #2]
20040558:	1d94      	adds	r4, r2, #6
2004055a:	40e5      	lsrs	r5, r4
2004055c:	07ed      	lsls	r5, r5, #31
2004055e:	d405      	bmi.n	2004056c <gpio_default_irq_handler+0x150>
20040560:	4d1a      	ldr	r5, [pc, #104]	@ (200405cc <gpio_default_irq_handler+0x1b0>)
20040562:	08e4      	lsrs	r4, r4, #3
20040564:	0609      	lsls	r1, r1, #24
20040566:	348c      	adds	r4, #140	@ 0x8c
20040568:	f845 1024 	str.w	r1, [r5, r4, lsl #2]
2004056c:	0f1b      	lsrs	r3, r3, #28
2004056e:	f102 0207 	add.w	r2, r2, #7
20040572:	d00a      	beq.n	2004058a <gpio_default_irq_handler+0x16e>
20040574:	f850 102a 	ldr.w	r1, [r0, sl, lsl #2]
20040578:	40d1      	lsrs	r1, r2
2004057a:	07c9      	lsls	r1, r1, #31
2004057c:	d405      	bmi.n	2004058a <gpio_default_irq_handler+0x16e>
2004057e:	4913      	ldr	r1, [pc, #76]	@ (200405cc <gpio_default_irq_handler+0x1b0>)
20040580:	08d2      	lsrs	r2, r2, #3
20040582:	071b      	lsls	r3, r3, #28
20040584:	328c      	adds	r2, #140	@ 0x8c
20040586:	f841 3022 	str.w	r3, [r1, r2, lsl #2]
2004058a:	2f20      	cmp	r7, #32
2004058c:	d182      	bne.n	20040494 <gpio_default_irq_handler+0x78>
2004058e:	e8bd 8ff8 	ldmia.w	sp!, {r3, r4, r5, r6, r7, r8, r9, sl, fp, pc}
20040592:	08ec      	lsrs	r4, r5, #3
20040594:	4d0d      	ldr	r5, [pc, #52]	@ (200405cc <gpio_default_irq_handler+0x1b0>)
20040596:	0309      	lsls	r1, r1, #12
20040598:	348c      	adds	r4, #140	@ 0x8c
2004059a:	f845 1024 	str.w	r1, [r5, r4, lsl #2]
2004059e:	e7bb      	b.n	20040518 <gpio_default_irq_handler+0xfc>
200405a0:	4d0a      	ldr	r5, [pc, #40]	@ (200405cc <gpio_default_irq_handler+0x1b0>)
200405a2:	08e4      	lsrs	r4, r4, #3
200405a4:	0409      	lsls	r1, r1, #16
200405a6:	348c      	adds	r4, #140	@ 0x8c
200405a8:	f845 1024 	str.w	r1, [r5, r4, lsl #2]
200405ac:	e7c0      	b.n	20040530 <gpio_default_irq_handler+0x114>
200405ae:	4d07      	ldr	r5, [pc, #28]	@ (200405cc <gpio_default_irq_handler+0x1b0>)
200405b0:	08e4      	lsrs	r4, r4, #3
200405b2:	0509      	lsls	r1, r1, #20
200405b4:	348c      	adds	r4, #140	@ 0x8c
200405b6:	f845 1024 	str.w	r1, [r5, r4, lsl #2]
200405ba:	e7c5      	b.n	20040548 <gpio_default_irq_handler+0x12c>
200405bc:	20041f68 	.word	0x20041f68
200405c0:	40028248 	.word	0x40028248
200405c4:	40028290 	.word	0x40028290
200405c8:	20041fc8 	.word	0x20041fc8
200405cc:	40028000 	.word	0x40028000

200405d0 <gpio_set_pulls>:
200405d0:	b410      	push	{r4}
200405d2:	4c08      	ldr	r4, [pc, #32]	@ (200405f4 <gpio_set_pulls+0x24>)
200405d4:	00c9      	lsls	r1, r1, #3
200405d6:	ea41 0182 	orr.w	r1, r1, r2, lsl #2
200405da:	f854 2020 	ldr.w	r2, [r4, r0, lsl #2]
200405de:	eb04 0380 	add.w	r3, r4, r0, lsl #2
200405e2:	4051      	eors	r1, r2
200405e4:	f503 5380 	add.w	r3, r3, #4096	@ 0x1000
200405e8:	f001 010c 	and.w	r1, r1, #12
200405ec:	f85d 4b04 	ldr.w	r4, [sp], #4
200405f0:	6019      	str	r1, [r3, #0]
200405f2:	4770      	bx	lr
200405f4:	40038004 	.word	0x40038004

200405f8 <gpio_set_irq_enabled_with_callback>:
200405f8:	e92d 43f0 	stmdb	sp!, {r4, r5, r6, r7, r8, r9, lr}
200405fc:	f04f 4950 	mov.w	r9, #3489660928	@ 0xd0000000
20040600:	4616      	mov	r6, r2
20040602:	f8df 809c 	ldr.w	r8, [pc, #156]	@ 200406a0 <gpio_set_irq_enabled_with_callback+0xa8>
20040606:	f8d9 2000 	ldr.w	r2, [r9]
2004060a:	461f      	mov	r7, r3
2004060c:	f858 3022 	ldr.w	r3, [r8, r2, lsl #2]
20040610:	4604      	mov	r4, r0
20040612:	460d      	mov	r5, r1
20040614:	b083      	sub	sp, #12
20040616:	b353      	cbz	r3, 2004066e <gpio_set_irq_enabled_with_callback+0x76>
20040618:	2f00      	cmp	r7, #0
2004061a:	d034      	beq.n	20040686 <gpio_set_irq_enabled_with_callback+0x8e>
2004061c:	f04f 4350 	mov.w	r3, #3489660928	@ 0xd0000000
20040620:	f848 7022 	str.w	r7, [r8, r2, lsl #2]
20040624:	681a      	ldr	r2, [r3, #0]
20040626:	491b      	ldr	r1, [pc, #108]	@ (20040694 <gpio_set_irq_enabled_with_callback+0x9c>)
20040628:	4b1b      	ldr	r3, [pc, #108]	@ (20040698 <gpio_set_irq_enabled_with_callback+0xa0>)
2004062a:	2a00      	cmp	r2, #0
2004062c:	bf18      	it	ne
2004062e:	460b      	movne	r3, r1
20040630:	08e2      	lsrs	r2, r4, #3
20040632:	f004 0407 	and.w	r4, r4, #7
20040636:	00a4      	lsls	r4, r4, #2
20040638:	fa05 f404 	lsl.w	r4, r5, r4
2004063c:	f5a1 7124 	sub.w	r1, r1, #656	@ 0x290
20040640:	f102 008c 	add.w	r0, r2, #140	@ 0x8c
20040644:	f841 4020 	str.w	r4, [r1, r0, lsl #2]
20040648:	eb03 0382 	add.w	r3, r3, r2, lsl #2
2004064c:	b14e      	cbz	r6, 20040662 <gpio_set_irq_enabled_with_callback+0x6a>
2004064e:	2101      	movs	r1, #1
20040650:	2015      	movs	r0, #21
20040652:	f503 5300 	add.w	r3, r3, #8192	@ 0x2000
20040656:	601c      	str	r4, [r3, #0]
20040658:	b003      	add	sp, #12
2004065a:	e8bd 43f0 	ldmia.w	sp!, {r4, r5, r6, r7, r8, r9, lr}
2004065e:	f000 b8c9 	b.w	200407f4 <irq_set_enabled>
20040662:	f503 5340 	add.w	r3, r3, #12288	@ 0x3000
20040666:	601c      	str	r4, [r3, #0]
20040668:	b003      	add	sp, #12
2004066a:	e8bd 83f0 	ldmia.w	sp!, {r4, r5, r6, r7, r8, r9, pc}
2004066e:	2f00      	cmp	r7, #0
20040670:	d0d9      	beq.n	20040626 <gpio_set_irq_enabled_with_callback+0x2e>
20040672:	f848 7022 	str.w	r7, [r8, r2, lsl #2]
20040676:	2015      	movs	r0, #21
20040678:	461a      	mov	r2, r3
2004067a:	4908      	ldr	r1, [pc, #32]	@ (2004069c <gpio_set_irq_enabled_with_callback+0xa4>)
2004067c:	f000 f900 	bl	20040880 <irq_add_shared_handler>
20040680:	f8d9 2000 	ldr.w	r2, [r9]
20040684:	e7cf      	b.n	20040626 <gpio_set_irq_enabled_with_callback+0x2e>
20040686:	2015      	movs	r0, #21
20040688:	4904      	ldr	r1, [pc, #16]	@ (2004069c <gpio_set_irq_enabled_with_callback+0xa4>)
2004068a:	9201      	str	r2, [sp, #4]
2004068c:	f000 f9ec 	bl	20040a68 <irq_remove_handler>
20040690:	9a01      	ldr	r2, [sp, #4]
20040692:	e7c3      	b.n	2004061c <gpio_set_irq_enabled_with_callback+0x24>
20040694:	40028290 	.word	0x40028290
20040698:	40028248 	.word	0x40028248
2004069c:	2004041d 	.word	0x2004041d
200406a0:	20041f68 	.word	0x20041f68

200406a4 <gpio_init>:
200406a4:	b430      	push	{r4, r5}
200406a6:	f04f 0300 	mov.w	r3, #0
200406aa:	ec43 0044 	gpioc_bit_oe_put r0, r3
200406ae:	ec43 0040 	gpioc_bit_out_put r0, r3
200406b2:	2505      	movs	r5, #5
200406b4:	f44f 7480 	mov.w	r4, #256	@ 0x100
200406b8:	4b0b      	ldr	r3, [pc, #44]	@ (200406e8 <gpio_init+0x44>)
200406ba:	00c2      	lsls	r2, r0, #3
200406bc:	f853 1020 	ldr.w	r1, [r3, r0, lsl #2]
200406c0:	eb03 0080 	add.w	r0, r3, r0, lsl #2
200406c4:	f081 0140 	eor.w	r1, r1, #64	@ 0x40
200406c8:	f102 4380 	add.w	r3, r2, #1073741824	@ 0x40000000
200406cc:	f503 3320 	add.w	r3, r3, #163840	@ 0x28000
200406d0:	f001 02c0 	and.w	r2, r1, #192	@ 0xc0
200406d4:	f500 5180 	add.w	r1, r0, #4096	@ 0x1000
200406d8:	f500 5040 	add.w	r0, r0, #12288	@ 0x3000
200406dc:	600a      	str	r2, [r1, #0]
200406de:	605d      	str	r5, [r3, #4]
200406e0:	6004      	str	r4, [r0, #0]
200406e2:	bc30      	pop	{r4, r5}
200406e4:	4770      	bx	lr
200406e6:	bf00      	nop
200406e8:	40038004 	.word	0x40038004

200406ec <panic>:
200406ec:	b40f      	push	{r0, r1, r2, r3}
200406ee:	b500      	push	{lr}
200406f0:	b083      	sub	sp, #12
200406f2:	9c04      	ldr	r4, [sp, #16]
200406f4:	4807      	ldr	r0, [pc, #28]	@ (20040714 <panic+0x28>)
200406f6:	f001 fa1f 	bl	20041b38 <__wrap_puts>
200406fa:	b13c      	cbz	r4, 2004070c <panic+0x20>
200406fc:	a905      	add	r1, sp, #20
200406fe:	4620      	mov	r0, r4
20040700:	9101      	str	r1, [sp, #4]
20040702:	f001 f8d5 	bl	200418b0 <weak_raw_vprintf>
20040706:	4804      	ldr	r0, [pc, #16]	@ (20040718 <panic+0x2c>)
20040708:	f001 fa16 	bl	20041b38 <__wrap_puts>
2004070c:	2001      	movs	r0, #1
2004070e:	f001 f8e7 	bl	200418e0 <_exit>
20040712:	bf00      	nop
20040714:	20041c74 	.word	0x20041c74
20040718:	20041c84 	.word	0x20041c84

2004071c <hw_claim_or_assert>:
2004071c:	b570      	push	{r4, r5, r6, lr}
2004071e:	4686      	mov	lr, r0
20040720:	f3ef 8510 	mrs	r5, PRIMASK
20040724:	b672      	cpsid	i
20040726:	4c12      	ldr	r4, [pc, #72]	@ (20040770 <hw_claim_or_assert+0x54>)
20040728:	e8d4 6fcf 	ldaexb	r6, [r4]
2004072c:	2001      	movs	r0, #1
2004072e:	2e00      	cmp	r6, #0
20040730:	d1fa      	bne.n	20040728 <hw_claim_or_assert+0xc>
20040732:	e8c4 0f46 	strexb	r6, r0, [r4]
20040736:	2e00      	cmp	r6, #0
20040738:	d1f6      	bne.n	20040728 <hw_claim_or_assert+0xc>
2004073a:	f3bf 8f5f 	dmb	sy
2004073e:	f04f 0c01 	mov.w	ip, #1
20040742:	08c8      	lsrs	r0, r1, #3
20040744:	f001 0307 	and.w	r3, r1, #7
20040748:	fa0c f303 	lsl.w	r3, ip, r3
2004074c:	f81e c000 	ldrb.w	ip, [lr, r0]
20040750:	ea1c 0603 	ands.w	r6, ip, r3
20040754:	d108      	bne.n	20040768 <hw_claim_or_assert+0x4c>
20040756:	ea4c 0c03 	orr.w	ip, ip, r3
2004075a:	f80e c000 	strb.w	ip, [lr, r0]
2004075e:	e8c4 6f8f 	stlb	r6, [r4]
20040762:	f385 8810 	msr	PRIMASK, r5
20040766:	bd70      	pop	{r4, r5, r6, pc}
20040768:	4610      	mov	r0, r2
2004076a:	f7ff ffbf 	bl	200406ec <panic>
2004076e:	bf00      	nop
20040770:	20041f53 	.word	0x20041f53

20040774 <next_striped_spin_lock_num>:
20040774:	4a04      	ldr	r2, [pc, #16]	@ (20040788 <next_striped_spin_lock_num+0x14>)
20040776:	7810      	ldrb	r0, [r2, #0]
20040778:	1c43      	adds	r3, r0, #1
2004077a:	b2db      	uxtb	r3, r3
2004077c:	2b18      	cmp	r3, #24
2004077e:	bf28      	it	cs
20040780:	2310      	movcs	r3, #16
20040782:	7013      	strb	r3, [r2, #0]
20040784:	4770      	bx	lr
20040786:	bf00      	nop
20040788:	20041d19 	.word	0x20041d19

2004078c <spinlock_set_extexclall>:
2004078c:	f04f 22e0 	mov.w	r2, #3758153728	@ 0xe000e000
20040790:	6893      	ldr	r3, [r2, #8]
20040792:	f043 5300 	orr.w	r3, r3, #536870912	@ 0x20000000
20040796:	6093      	str	r3, [r2, #8]
20040798:	4770      	bx	lr
2004079a:	bf00      	nop

2004079c <spin_locks_reset>:
2004079c:	2100      	movs	r1, #0
2004079e:	4b04      	ldr	r3, [pc, #16]	@ (200407b0 <spin_locks_reset+0x14>)
200407a0:	f103 0220 	add.w	r2, r3, #32
200407a4:	e8c3 1f8f 	stlb	r1, [r3]
200407a8:	3301      	adds	r3, #1
200407aa:	4293      	cmp	r3, r2
200407ac:	d1fa      	bne.n	200407a4 <spin_locks_reset+0x8>
200407ae:	4770      	bx	lr
200407b0:	20041f48 	.word	0x20041f48

200407b4 <runtime_init_per_core_irq_priorities>:
200407b4:	f04f 23e0 	mov.w	r3, #3758153728	@ 0xe000e000
200407b8:	f04f 3280 	mov.w	r2, #2155905152	@ 0x80808080
200407bc:	f8c3 2400 	str.w	r2, [r3, #1024]	@ 0x400
200407c0:	f8c3 2404 	str.w	r2, [r3, #1028]	@ 0x404
200407c4:	f8c3 2408 	str.w	r2, [r3, #1032]	@ 0x408
200407c8:	f8c3 240c 	str.w	r2, [r3, #1036]	@ 0x40c
200407cc:	f8c3 2410 	str.w	r2, [r3, #1040]	@ 0x410
200407d0:	f8c3 2414 	str.w	r2, [r3, #1044]	@ 0x414
200407d4:	f8c3 2418 	str.w	r2, [r3, #1048]	@ 0x418
200407d8:	f8c3 241c 	str.w	r2, [r3, #1052]	@ 0x41c
200407dc:	f8c3 2420 	str.w	r2, [r3, #1056]	@ 0x420
200407e0:	f8c3 2424 	str.w	r2, [r3, #1060]	@ 0x424
200407e4:	f8c3 2428 	str.w	r2, [r3, #1064]	@ 0x428
200407e8:	f8c3 242c 	str.w	r2, [r3, #1068]	@ 0x42c
200407ec:	f8c3 2430 	str.w	r2, [r3, #1072]	@ 0x430
200407f0:	b662      	cpsie	i
200407f2:	4770      	bx	lr

200407f4 <irq_set_enabled>:
200407f4:	2301      	movs	r3, #1
200407f6:	f000 021f 	and.w	r2, r0, #31
200407fa:	4093      	lsls	r3, r2
200407fc:	0940      	lsrs	r0, r0, #5
200407fe:	b141      	cbz	r1, 20040812 <irq_set_enabled+0x1e>
20040800:	0080      	lsls	r0, r0, #2
20040802:	f100 4060 	add.w	r0, r0, #3758096384	@ 0xe0000000
20040806:	f500 4061 	add.w	r0, r0, #57600	@ 0xe100
2004080a:	f8c0 3180 	str.w	r3, [r0, #384]	@ 0x180
2004080e:	6003      	str	r3, [r0, #0]
20040810:	4770      	bx	lr
20040812:	4a02      	ldr	r2, [pc, #8]	@ (2004081c <irq_set_enabled+0x28>)
20040814:	3020      	adds	r0, #32
20040816:	f842 3020 	str.w	r3, [r2, r0, lsl #2]
2004081a:	4770      	bx	lr
2004081c:	e000e100 	.word	0xe000e100

20040820 <irq_set_exclusive_handler>:
20040820:	b5f8      	push	{r3, r4, r5, r6, r7, lr}
20040822:	460d      	mov	r5, r1
20040824:	f3ef 8710 	mrs	r7, PRIMASK
20040828:	b672      	cpsid	i
2004082a:	4e12      	ldr	r6, [pc, #72]	@ (20040874 <irq_set_exclusive_handler+0x54>)
2004082c:	e8d6 2fcf 	ldaexb	r2, [r6]
20040830:	2301      	movs	r3, #1
20040832:	2a00      	cmp	r2, #0
20040834:	d1fa      	bne.n	2004082c <irq_set_exclusive_handler+0xc>
20040836:	e8c6 3f42 	strexb	r2, r3, [r6]
2004083a:	2a00      	cmp	r2, #0
2004083c:	d1f6      	bne.n	2004082c <irq_set_exclusive_handler+0xc>
2004083e:	f3bf 8f5f 	dmb	sy
20040842:	4b0d      	ldr	r3, [pc, #52]	@ (20040878 <irq_set_exclusive_handler+0x58>)
20040844:	f100 0410 	add.w	r4, r0, #16
20040848:	689b      	ldr	r3, [r3, #8]
2004084a:	4a0c      	ldr	r2, [pc, #48]	@ (2004087c <irq_set_exclusive_handler+0x5c>)
2004084c:	f853 3024 	ldr.w	r3, [r3, r4, lsl #2]
20040850:	4293      	cmp	r3, r2
20040852:	d003      	beq.n	2004085c <irq_set_exclusive_handler+0x3c>
20040854:	4299      	cmp	r1, r3
20040856:	d001      	beq.n	2004085c <irq_set_exclusive_handler+0x3c>
20040858:	f000 ff50 	bl	200416fc <hard_assertion_failure>
2004085c:	4b06      	ldr	r3, [pc, #24]	@ (20040878 <irq_set_exclusive_handler+0x58>)
2004085e:	689b      	ldr	r3, [r3, #8]
20040860:	f843 5024 	str.w	r5, [r3, r4, lsl #2]
20040864:	f3bf 8f5f 	dmb	sy
20040868:	2300      	movs	r3, #0
2004086a:	e8c6 3f8f 	stlb	r3, [r6]
2004086e:	f387 8810 	msr	PRIMASK, r7
20040872:	bdf8      	pop	{r3, r4, r5, r6, r7, pc}
20040874:	20041f51 	.word	0x20041f51
20040878:	e000ed00 	.word	0xe000ed00
2004087c:	20040111 	.word	0x20040111

20040880 <irq_add_shared_handler>:
20040880:	e92d 4ff0 	stmdb	sp!, {r4, r5, r6, r7, r8, r9, sl, fp, lr}
20040884:	4681      	mov	r9, r0
20040886:	468b      	mov	fp, r1
20040888:	4616      	mov	r6, r2
2004088a:	b083      	sub	sp, #12
2004088c:	f3ef 8310 	mrs	r3, PRIMASK
20040890:	b672      	cpsid	i
20040892:	f8df a1d0 	ldr.w	sl, [pc, #464]	@ 20040a64 <irq_add_shared_handler+0x1e4>
20040896:	9300      	str	r3, [sp, #0]
20040898:	e8da 1fcf 	ldaexb	r1, [sl]
2004089c:	2301      	movs	r3, #1
2004089e:	2900      	cmp	r1, #0
200408a0:	d1fa      	bne.n	20040898 <irq_add_shared_handler+0x18>
200408a2:	e8ca 3f41 	strexb	r1, r3, [sl]
200408a6:	2900      	cmp	r1, #0
200408a8:	d1f6      	bne.n	20040898 <irq_add_shared_handler+0x18>
200408aa:	f3bf 8f5f 	dmb	sy
200408ae:	4b66      	ldr	r3, [pc, #408]	@ (20040a48 <irq_add_shared_handler+0x1c8>)
200408b0:	f993 4000 	ldrsb.w	r4, [r3]
200408b4:	2c00      	cmp	r4, #0
200408b6:	f2c0 80a0 	blt.w	200409fa <irq_add_shared_handler+0x17a>
200408ba:	4d64      	ldr	r5, [pc, #400]	@ (20040a4c <irq_add_shared_handler+0x1cc>)
200408bc:	eb04 0744 	add.w	r7, r4, r4, lsl #1
200408c0:	eb05 0887 	add.w	r8, r5, r7, lsl #2
200408c4:	f898 1006 	ldrb.w	r1, [r8, #6]
200408c8:	f109 0910 	add.w	r9, r9, #16
200408cc:	7019      	strb	r1, [r3, #0]
200408ce:	4b60      	ldr	r3, [pc, #384]	@ (20040a50 <irq_add_shared_handler+0x1d0>)
200408d0:	00bf      	lsls	r7, r7, #2
200408d2:	689b      	ldr	r3, [r3, #8]
200408d4:	f853 0029 	ldr.w	r0, [r3, r9, lsl #2]
200408d8:	0063      	lsls	r3, r4, #1
200408da:	1b41      	subs	r1, r0, r5
200408dc:	292f      	cmp	r1, #47	@ 0x2f
200408de:	d92f      	bls.n	20040940 <irq_add_shared_handler+0xc0>
200408e0:	495c      	ldr	r1, [pc, #368]	@ (20040a54 <irq_add_shared_handler+0x1d4>)
200408e2:	4288      	cmp	r0, r1
200408e4:	f040 80a4 	bne.w	20040a30 <irq_add_shared_handler+0x1b0>
200408e8:	441c      	add	r4, r3
200408ea:	4b5b      	ldr	r3, [pc, #364]	@ (20040a58 <irq_add_shared_handler+0x1d8>)
200408ec:	3702      	adds	r7, #2
200408ee:	442f      	add	r7, r5
200408f0:	3b04      	subs	r3, #4
200408f2:	1bdb      	subs	r3, r3, r7
200408f4:	f3c3 034a 	ubfx	r3, r3, #1, #11
200408f8:	ea6f 43c3 	mvn.w	r3, r3, lsl #19
200408fc:	f44f 4121 	mov.w	r1, #41216	@ 0xa100
20040900:	ea6f 43d3 	mvn.w	r3, r3, lsr #19
20040904:	f825 1024 	strh.w	r1, [r5, r4, lsl #2]
20040908:	eb05 0484 	add.w	r4, r5, r4, lsl #2
2004090c:	8063      	strh	r3, [r4, #2]
2004090e:	f64b 5301 	movw	r3, #48385	@ 0xbd01
20040912:	80a3      	strh	r3, [r4, #4]
20040914:	23ff      	movs	r3, #255	@ 0xff
20040916:	f048 0001 	orr.w	r0, r8, #1
2004091a:	71e6      	strb	r6, [r4, #7]
2004091c:	f8c4 b008 	str.w	fp, [r4, #8]
20040920:	71a3      	strb	r3, [r4, #6]
20040922:	4b4b      	ldr	r3, [pc, #300]	@ (20040a50 <irq_add_shared_handler+0x1d0>)
20040924:	689b      	ldr	r3, [r3, #8]
20040926:	f843 0029 	str.w	r0, [r3, r9, lsl #2]
2004092a:	f3bf 8f5f 	dmb	sy
2004092e:	2300      	movs	r3, #0
20040930:	e8ca 3f8f 	stlb	r3, [sl]
20040934:	9b00      	ldr	r3, [sp, #0]
20040936:	f383 8810 	msr	PRIMASK, r3
2004093a:	b003      	add	sp, #12
2004093c:	e8bd 8ff0 	ldmia.w	sp!, {r4, r5, r6, r7, r8, r9, sl, fp, pc}
20040940:	f020 0e01 	bic.w	lr, r0, #1
20040944:	f89e 1007 	ldrb.w	r1, [lr, #7]
20040948:	42b1      	cmp	r1, r6
2004094a:	d82e      	bhi.n	200409aa <irq_add_shared_handler+0x12a>
2004094c:	f44f 4321 	mov.w	r3, #41216	@ 0xa100
20040950:	53eb      	strh	r3, [r5, r7]
20040952:	4b41      	ldr	r3, [pc, #260]	@ (20040a58 <irq_add_shared_handler+0x1d8>)
20040954:	1cb9      	adds	r1, r7, #2
20040956:	4429      	add	r1, r5
20040958:	3b04      	subs	r3, #4
2004095a:	3704      	adds	r7, #4
2004095c:	1a5b      	subs	r3, r3, r1
2004095e:	442f      	add	r7, r5
20040960:	f1ae 0104 	sub.w	r1, lr, #4
20040964:	4c3d      	ldr	r4, [pc, #244]	@ (20040a5c <irq_add_shared_handler+0x1dc>)
20040966:	1bc9      	subs	r1, r1, r7
20040968:	f3c1 014a 	ubfx	r1, r1, #1, #11
2004096c:	4321      	orrs	r1, r4
2004096e:	f8a8 1004 	strh.w	r1, [r8, #4]
20040972:	f3c3 034a 	ubfx	r3, r3, #1, #11
20040976:	493a      	ldr	r1, [pc, #232]	@ (20040a60 <irq_add_shared_handler+0x1e0>)
20040978:	4323      	orrs	r3, r4
2004097a:	f8a8 3002 	strh.w	r3, [r8, #2]
2004097e:	f64a 20aa 	movw	r0, #43690	@ 0xaaaa
20040982:	4673      	mov	r3, lr
20040984:	1b5b      	subs	r3, r3, r5
20040986:	415b      	adcs	r3, r3
20040988:	4358      	muls	r0, r3
2004098a:	0d00      	lsrs	r0, r0, #20
2004098c:	f888 6007 	strb.w	r6, [r8, #7]
20040990:	f888 0006 	strb.w	r0, [r8, #6]
20040994:	f8c8 b008 	str.w	fp, [r8, #8]
20040998:	f048 0001 	orr.w	r0, r8, #1
2004099c:	f8ce 1000 	str.w	r1, [lr]
200409a0:	e7bf      	b.n	20040922 <irq_add_shared_handler+0xa2>
200409a2:	79d1      	ldrb	r1, [r2, #7]
200409a4:	42b1      	cmp	r1, r6
200409a6:	d92e      	bls.n	20040a06 <irq_add_shared_handler+0x186>
200409a8:	4696      	mov	lr, r2
200409aa:	f99e c006 	ldrsb.w	ip, [lr, #6]
200409ae:	eb0c 024c 	add.w	r2, ip, ip, lsl #1
200409b2:	f1bc 0f00 	cmp.w	ip, #0
200409b6:	eb05 0282 	add.w	r2, r5, r2, lsl #2
200409ba:	daf2      	bge.n	200409a2 <irq_add_shared_handler+0x122>
200409bc:	f64b 5101 	movw	r1, #48385	@ 0xbd01
200409c0:	f10e 0204 	add.w	r2, lr, #4
200409c4:	f1a8 0704 	sub.w	r7, r8, #4
200409c8:	1abf      	subs	r7, r7, r2
200409ca:	f3c7 074a 	ubfx	r7, r7, #1, #11
200409ce:	ea6f 47c7 	mvn.w	r7, r7, lsl #19
200409d2:	ea6f 47d7 	mvn.w	r7, r7, lsr #19
200409d6:	f88e 4006 	strb.w	r4, [lr, #6]
200409da:	eb03 0804 	add.w	r8, r3, r4
200409de:	4c20      	ldr	r4, [pc, #128]	@ (20040a60 <irq_add_shared_handler+0x1e0>)
200409e0:	eb05 0388 	add.w	r3, r5, r8, lsl #2
200409e4:	f8ae 7004 	strh.w	r7, [lr, #4]
200409e8:	f845 4028 	str.w	r4, [r5, r8, lsl #2]
200409ec:	8099      	strh	r1, [r3, #4]
200409ee:	f883 c006 	strb.w	ip, [r3, #6]
200409f2:	71de      	strb	r6, [r3, #7]
200409f4:	f8c3 b008 	str.w	fp, [r3, #8]
200409f8:	e793      	b.n	20040922 <irq_add_shared_handler+0xa2>
200409fa:	f000 fe7f 	bl	200416fc <hard_assertion_failure>
200409fe:	4b12      	ldr	r3, [pc, #72]	@ (20040a48 <irq_add_shared_handler+0x1c8>)
20040a00:	f993 4000 	ldrsb.w	r4, [r3]
20040a04:	e759      	b.n	200408ba <irq_add_shared_handler+0x3a>
20040a06:	4672      	mov	r2, lr
20040a08:	f832 1f04 	ldrh.w	r1, [r2, #4]!
20040a0c:	0549      	lsls	r1, r1, #21
20040a0e:	d414      	bmi.n	20040a3a <irq_add_shared_handler+0x1ba>
20040a10:	1549      	asrs	r1, r1, #21
20040a12:	3102      	adds	r1, #2
20040a14:	eb02 0141 	add.w	r1, r2, r1, lsl #1
20040a18:	9101      	str	r1, [sp, #4]
20040a1a:	f06f 0107 	mvn.w	r1, #7
20040a1e:	1bc9      	subs	r1, r1, r7
20040a20:	9f01      	ldr	r7, [sp, #4]
20040a22:	1b49      	subs	r1, r1, r5
20040a24:	4439      	add	r1, r7
20040a26:	f3c1 014a 	ubfx	r1, r1, #1, #11
20040a2a:	f441 4160 	orr.w	r1, r1, #57344	@ 0xe000
20040a2e:	e7c9      	b.n	200409c4 <irq_add_shared_handler+0x144>
20040a30:	9301      	str	r3, [sp, #4]
20040a32:	f000 fe63 	bl	200416fc <hard_assertion_failure>
20040a36:	9b01      	ldr	r3, [sp, #4]
20040a38:	e756      	b.n	200408e8 <irq_add_shared_handler+0x68>
20040a3a:	f501 11ff 	add.w	r1, r1, #2088960	@ 0x1fe000
20040a3e:	f501 51ff 	add.w	r1, r1, #8160	@ 0x1fe0
20040a42:	311f      	adds	r1, #31
20040a44:	e7e4      	b.n	20040a10 <irq_add_shared_handler+0x190>
20040a46:	bf00      	nop
20040a48:	20041fd4 	.word	0x20041fd4
20040a4c:	20041d1c 	.word	0x20041d1c
20040a50:	e000ed00 	.word	0xe000ed00
20040a54:	20040111 	.word	0x20040111
20040a58:	20041d4c 	.word	0x20041d4c
20040a5c:	ffffe000 	.word	0xffffe000
20040a60:	47804801 	.word	0x47804801
20040a64:	20041f51 	.word	0x20041f51

20040a68 <irq_remove_handler>:
20040a68:	e92d 4ff0 	stmdb	sp!, {r4, r5, r6, r7, r8, r9, sl, fp, lr}
20040a6c:	b083      	sub	sp, #12
20040a6e:	f3ef 8a10 	mrs	sl, PRIMASK
20040a72:	b672      	cpsid	i
20040a74:	4e74      	ldr	r6, [pc, #464]	@ (20040c48 <irq_remove_handler+0x1e0>)
20040a76:	e8d6 2fcf 	ldaexb	r2, [r6]
20040a7a:	2301      	movs	r3, #1
20040a7c:	2a00      	cmp	r2, #0
20040a7e:	d1fa      	bne.n	20040a76 <irq_remove_handler+0xe>
20040a80:	e8c6 3f42 	strexb	r2, r3, [r6]
20040a84:	2a00      	cmp	r2, #0
20040a86:	d1f6      	bne.n	20040a76 <irq_remove_handler+0xe>
20040a88:	f3bf 8f5f 	dmb	sy
20040a8c:	4b6f      	ldr	r3, [pc, #444]	@ (20040c4c <irq_remove_handler+0x1e4>)
20040a8e:	f100 0810 	add.w	r8, r0, #16
20040a92:	689b      	ldr	r3, [r3, #8]
20040a94:	4a6e      	ldr	r2, [pc, #440]	@ (20040c50 <irq_remove_handler+0x1e8>)
20040a96:	f853 5028 	ldr.w	r5, [r3, r8, lsl #2]
20040a9a:	4295      	cmp	r5, r2
20040a9c:	d03f      	beq.n	20040b1e <irq_remove_handler+0xb6>
20040a9e:	428d      	cmp	r5, r1
20040aa0:	460c      	mov	r4, r1
20040aa2:	d04a      	beq.n	20040b3a <irq_remove_handler+0xd2>
20040aa4:	4f6b      	ldr	r7, [pc, #428]	@ (20040c54 <irq_remove_handler+0x1ec>)
20040aa6:	1beb      	subs	r3, r5, r7
20040aa8:	2b2f      	cmp	r3, #47	@ 0x2f
20040aaa:	d838      	bhi.n	20040b1e <irq_remove_handler+0xb6>
20040aac:	2101      	movs	r1, #1
20040aae:	ea4f 1950 	mov.w	r9, r0, lsr #5
20040ab2:	ea4f 0989 	mov.w	r9, r9, lsl #2
20040ab6:	f109 4960 	add.w	r9, r9, #3758096384	@ 0xe0000000
20040aba:	f509 4961 	add.w	r9, r9, #57600	@ 0xe100
20040abe:	f000 031f 	and.w	r3, r0, #31
20040ac2:	fa01 f003 	lsl.w	r0, r1, r3
20040ac6:	f8d9 3000 	ldr.w	r3, [r9]
20040aca:	f8c9 0080 	str.w	r0, [r9, #128]	@ 0x80
20040ace:	ea00 0b03 	and.w	fp, r0, r3
20040ad2:	f3bf 8f5f 	dmb	sy
20040ad6:	f3ef 8105 	mrs	r1, IPSR
20040ada:	b2c9      	uxtb	r1, r1
20040adc:	b379      	cbz	r1, 20040b3e <irq_remove_handler+0xd6>
20040ade:	4588      	cmp	r8, r1
20040ae0:	d177      	bne.n	20040bd2 <irq_remove_handler+0x16a>
20040ae2:	f025 0e01 	bic.w	lr, r5, #1
20040ae6:	f8de c008 	ldr.w	ip, [lr, #8]
20040aea:	4564      	cmp	r4, ip
20040aec:	d105      	bne.n	20040afa <irq_remove_handler+0x92>
20040aee:	e07c      	b.n	20040bea <irq_remove_handler+0x182>
20040af0:	f8d3 c008 	ldr.w	ip, [r3, #8]
20040af4:	4564      	cmp	r4, ip
20040af6:	d032      	beq.n	20040b5e <irq_remove_handler+0xf6>
20040af8:	469e      	mov	lr, r3
20040afa:	f99e 2006 	ldrsb.w	r2, [lr, #6]
20040afe:	eb02 0342 	add.w	r3, r2, r2, lsl #1
20040b02:	2a00      	cmp	r2, #0
20040b04:	eb07 0383 	add.w	r3, r7, r3, lsl #2
20040b08:	daf2      	bge.n	20040af0 <irq_remove_handler+0x88>
20040b0a:	4564      	cmp	r4, ip
20040b0c:	f000 8081 	beq.w	20040c12 <irq_remove_handler+0x1aa>
20040b10:	f1bb 0f00 	cmp.w	fp, #0
20040b14:	d020      	beq.n	20040b58 <irq_remove_handler+0xf0>
20040b16:	f8c9 0180 	str.w	r0, [r9, #384]	@ 0x180
20040b1a:	f8c9 0000 	str.w	r0, [r9]
20040b1e:	4b4b      	ldr	r3, [pc, #300]	@ (20040c4c <irq_remove_handler+0x1e4>)
20040b20:	689b      	ldr	r3, [r3, #8]
20040b22:	f843 5028 	str.w	r5, [r3, r8, lsl #2]
20040b26:	f3bf 8f5f 	dmb	sy
20040b2a:	2300      	movs	r3, #0
20040b2c:	e8c6 3f8f 	stlb	r3, [r6]
20040b30:	f38a 8810 	msr	PRIMASK, sl
20040b34:	b003      	add	sp, #12
20040b36:	e8bd 8ff0 	ldmia.w	sp!, {r4, r5, r6, r7, r8, r9, sl, fp, pc}
20040b3a:	4615      	mov	r5, r2
20040b3c:	e7ef      	b.n	20040b1e <irq_remove_handler+0xb6>
20040b3e:	f025 0e01 	bic.w	lr, r5, #1
20040b42:	f8de c008 	ldr.w	ip, [lr, #8]
20040b46:	4564      	cmp	r4, ip
20040b48:	d1d7      	bne.n	20040afa <irq_remove_handler+0x92>
20040b4a:	f99e 4006 	ldrsb.w	r4, [lr, #6]
20040b4e:	4673      	mov	r3, lr
20040b50:	2c00      	cmp	r4, #0
20040b52:	da08      	bge.n	20040b66 <irq_remove_handler+0xfe>
20040b54:	4615      	mov	r5, r2
20040b56:	e066      	b.n	20040c26 <irq_remove_handler+0x1be>
20040b58:	f8c9 0080 	str.w	r0, [r9, #128]	@ 0x80
20040b5c:	e7df      	b.n	20040b1e <irq_remove_handler+0xb6>
20040b5e:	f993 4006 	ldrsb.w	r4, [r3, #6]
20040b62:	2c00      	cmp	r4, #0
20040b64:	db56      	blt.n	20040c14 <irq_remove_handler+0x1ac>
20040b66:	eb04 0c44 	add.w	ip, r4, r4, lsl #1
20040b6a:	eb07 0c8c 	add.w	ip, r7, ip, lsl #2
20040b6e:	f8dc 2008 	ldr.w	r2, [ip, #8]
20040b72:	0061      	lsls	r1, r4, #1
20040b74:	609a      	str	r2, [r3, #8]
20040b76:	f89c 2007 	ldrb.w	r2, [ip, #7]
20040b7a:	71da      	strb	r2, [r3, #7]
20040b7c:	f99c 2006 	ldrsb.w	r2, [ip, #6]
20040b80:	2a00      	cmp	r2, #0
20040b82:	719a      	strb	r2, [r3, #6]
20040b84:	db5d      	blt.n	20040c42 <irq_remove_handler+0x1da>
20040b86:	f8bc 2004 	ldrh.w	r2, [ip, #4]
20040b8a:	0552      	lsls	r2, r2, #21
20040b8c:	d504      	bpl.n	20040b98 <irq_remove_handler+0x130>
20040b8e:	f502 12ff 	add.w	r2, r2, #2088960	@ 0x1fe000
20040b92:	f502 52ff 	add.w	r2, r2, #8160	@ 0x1fe0
20040b96:	321f      	adds	r2, #31
20040b98:	1552      	asrs	r2, r2, #21
20040b9a:	f102 0c02 	add.w	ip, r2, #2
20040b9e:	f04f 0e04 	mov.w	lr, #4
20040ba2:	220c      	movs	r2, #12
20040ba4:	fb12 e204 	smlabb	r2, r2, r4, lr
20040ba8:	eb02 024c 	add.w	r2, r2, ip, lsl #1
20040bac:	f06f 0c07 	mvn.w	ip, #7
20040bb0:	443a      	add	r2, r7
20040bb2:	ebac 0c03 	sub.w	ip, ip, r3
20040bb6:	4462      	add	r2, ip
20040bb8:	f3c2 024a 	ubfx	r2, r2, #1, #11
20040bbc:	f442 4260 	orr.w	r2, r2, #57344	@ 0xe000
20040bc0:	809a      	strh	r2, [r3, #4]
20040bc2:	4b25      	ldr	r3, [pc, #148]	@ (20040c58 <irq_remove_handler+0x1f0>)
20040bc4:	4421      	add	r1, r4
20040bc6:	781a      	ldrb	r2, [r3, #0]
20040bc8:	eb07 0181 	add.w	r1, r7, r1, lsl #2
20040bcc:	701c      	strb	r4, [r3, #0]
20040bce:	718a      	strb	r2, [r1, #6]
20040bd0:	e79e      	b.n	20040b10 <irq_remove_handler+0xa8>
20040bd2:	e9cd 0100 	strd	r0, r1, [sp]
20040bd6:	f000 fd91 	bl	200416fc <hard_assertion_failure>
20040bda:	e9dd 0100 	ldrd	r0, r1, [sp]
20040bde:	f025 0e01 	bic.w	lr, r5, #1
20040be2:	f8de c008 	ldr.w	ip, [lr, #8]
20040be6:	4564      	cmp	r4, ip
20040be8:	d187      	bne.n	20040afa <irq_remove_handler+0x92>
20040bea:	f99e 4006 	ldrsb.w	r4, [lr, #6]
20040bee:	4673      	mov	r3, lr
20040bf0:	2c00      	cmp	r4, #0
20040bf2:	dab8      	bge.n	20040b66 <irq_remove_handler+0xfe>
20040bf4:	4a19      	ldr	r2, [pc, #100]	@ (20040c5c <irq_remove_handler+0x1f4>)
20040bf6:	4c1a      	ldr	r4, [pc, #104]	@ (20040c60 <irq_remove_handler+0x1f8>)
20040bf8:	1ad2      	subs	r2, r2, r3
20040bfa:	3a08      	subs	r2, #8
20040bfc:	f3c2 310a 	ubfx	r1, r2, #12, #11
20040c00:	ea6f 5101 	mvn.w	r1, r1, lsl #20
20040c04:	ea6f 5111 	mvn.w	r1, r1, lsr #20
20040c08:	ea44 0252 	orr.w	r2, r4, r2, lsr #1
20040c0c:	80da      	strh	r2, [r3, #6]
20040c0e:	8099      	strh	r1, [r3, #4]
20040c10:	e77e      	b.n	20040b10 <irq_remove_handler+0xa8>
20040c12:	4673      	mov	r3, lr
20040c14:	2900      	cmp	r1, #0
20040c16:	d1ed      	bne.n	20040bf4 <irq_remove_handler+0x18c>
20040c18:	22ff      	movs	r2, #255	@ 0xff
20040c1a:	f88e 2006 	strb.w	r2, [lr, #6]
20040c1e:	f64b 5201 	movw	r2, #48385	@ 0xbd01
20040c22:	f8ae 2004 	strh.w	r2, [lr, #4]
20040c26:	4c0c      	ldr	r4, [pc, #48]	@ (20040c58 <irq_remove_handler+0x1f0>)
20040c28:	f64a 22aa 	movw	r2, #43690	@ 0xaaaa
20040c2c:	f894 c000 	ldrb.w	ip, [r4]
20040c30:	4619      	mov	r1, r3
20040c32:	1bc9      	subs	r1, r1, r7
20040c34:	4149      	adcs	r1, r1
20040c36:	434a      	muls	r2, r1
20040c38:	0d12      	lsrs	r2, r2, #20
20040c3a:	f883 c006 	strb.w	ip, [r3, #6]
20040c3e:	7022      	strb	r2, [r4, #0]
20040c40:	e766      	b.n	20040b10 <irq_remove_handler+0xa8>
20040c42:	f64b 5201 	movw	r2, #48385	@ 0xbd01
20040c46:	e7bb      	b.n	20040bc0 <irq_remove_handler+0x158>
20040c48:	20041f51 	.word	0x20041f51
20040c4c:	e000ed00 	.word	0xe000ed00
20040c50:	20040111 	.word	0x20040111
20040c54:	20041d1c 	.word	0x20041d1c
20040c58:	20041fd4 	.word	0x20041fd4
20040c5c:	20041d56 	.word	0x20041d56
20040c60:	fffff800 	.word	0xfffff800

20040c64 <irq_add_tail_to_free_list>:
20040c64:	b5f0      	push	{r4, r5, r6, r7, lr}
20040c66:	f3ef 8505 	mrs	r5, IPSR
20040c6a:	b2ed      	uxtb	r5, r5
20040c6c:	f3ef 8c10 	mrs	ip, PRIMASK
20040c70:	b672      	cpsid	i
20040c72:	4926      	ldr	r1, [pc, #152]	@ (20040d0c <irq_add_tail_to_free_list+0xa8>)
20040c74:	e8d1 2fcf 	ldaexb	r2, [r1]
20040c78:	2301      	movs	r3, #1
20040c7a:	2a00      	cmp	r2, #0
20040c7c:	d1fa      	bne.n	20040c74 <irq_add_tail_to_free_list+0x10>
20040c7e:	e8c1 3f42 	strexb	r2, r3, [r1]
20040c82:	2a00      	cmp	r2, #0
20040c84:	d1f6      	bne.n	20040c74 <irq_add_tail_to_free_list+0x10>
20040c86:	f3bf 8f5f 	dmb	sy
20040c8a:	4e21      	ldr	r6, [pc, #132]	@ (20040d10 <irq_add_tail_to_free_list+0xac>)
20040c8c:	f040 0e01 	orr.w	lr, r0, #1
20040c90:	68b4      	ldr	r4, [r6, #8]
20040c92:	f64a 23aa 	movw	r3, #43690	@ 0xaaaa
20040c96:	f854 7025 	ldr.w	r7, [r4, r5, lsl #2]
20040c9a:	4a1e      	ldr	r2, [pc, #120]	@ (20040d14 <irq_add_tail_to_free_list+0xb0>)
20040c9c:	4604      	mov	r4, r0
20040c9e:	1aa4      	subs	r4, r4, r2
20040ca0:	4164      	adcs	r4, r4
20040ca2:	4363      	muls	r3, r4
20040ca4:	0d1b      	lsrs	r3, r3, #20
20040ca6:	4577      	cmp	r7, lr
20040ca8:	b25b      	sxtb	r3, r3
20040caa:	d01b      	beq.n	20040ce4 <irq_add_tail_to_free_list+0x80>
20040cac:	f992 4006 	ldrsb.w	r4, [r2, #6]
20040cb0:	429c      	cmp	r4, r3
20040cb2:	d01c      	beq.n	20040cee <irq_add_tail_to_free_list+0x8a>
20040cb4:	f992 4012 	ldrsb.w	r4, [r2, #18]
20040cb8:	429c      	cmp	r4, r3
20040cba:	d023      	beq.n	20040d04 <irq_add_tail_to_free_list+0xa0>
20040cbc:	f992 401e 	ldrsb.w	r4, [r2, #30]
20040cc0:	429c      	cmp	r4, r3
20040cc2:	d021      	beq.n	20040d08 <irq_add_tail_to_free_list+0xa4>
20040cc4:	f992 402a 	ldrsb.w	r4, [r2, #42]	@ 0x2a
20040cc8:	429c      	cmp	r4, r3
20040cca:	bf08      	it	eq
20040ccc:	2403      	moveq	r4, #3
20040cce:	d00f      	beq.n	20040cf0 <irq_add_tail_to_free_list+0x8c>
20040cd0:	4a11      	ldr	r2, [pc, #68]	@ (20040d18 <irq_add_tail_to_free_list+0xb4>)
20040cd2:	2400      	movs	r4, #0
20040cd4:	7815      	ldrb	r5, [r2, #0]
20040cd6:	7013      	strb	r3, [r2, #0]
20040cd8:	7185      	strb	r5, [r0, #6]
20040cda:	e8c1 4f8f 	stlb	r4, [r1]
20040cde:	f38c 8810 	msr	PRIMASK, ip
20040ce2:	bdf0      	pop	{r4, r5, r6, r7, pc}
20040ce4:	68b2      	ldr	r2, [r6, #8]
20040ce6:	4c0d      	ldr	r4, [pc, #52]	@ (20040d1c <irq_add_tail_to_free_list+0xb8>)
20040ce8:	f842 4025 	str.w	r4, [r2, r5, lsl #2]
20040cec:	e7f0      	b.n	20040cd0 <irq_add_tail_to_free_list+0x6c>
20040cee:	2400      	movs	r4, #0
20040cf0:	eb04 0444 	add.w	r4, r4, r4, lsl #1
20040cf4:	eb02 0284 	add.w	r2, r2, r4, lsl #2
20040cf8:	24ff      	movs	r4, #255	@ 0xff
20040cfa:	7194      	strb	r4, [r2, #6]
20040cfc:	f64b 5401 	movw	r4, #48385	@ 0xbd01
20040d00:	8094      	strh	r4, [r2, #4]
20040d02:	e7e5      	b.n	20040cd0 <irq_add_tail_to_free_list+0x6c>
20040d04:	2401      	movs	r4, #1
20040d06:	e7f3      	b.n	20040cf0 <irq_add_tail_to_free_list+0x8c>
20040d08:	2402      	movs	r4, #2
20040d0a:	e7f1      	b.n	20040cf0 <irq_add_tail_to_free_list+0x8c>
20040d0c:	20041f51 	.word	0x20041f51
20040d10:	e000ed00 	.word	0xe000ed00
20040d14:	20041d1c 	.word	0x20041d1c
20040d18:	20041fd4 	.word	0x20041fd4
20040d1c:	20040111 	.word	0x20040111

20040d20 <lock_init>:
20040d20:	4b01      	ldr	r3, [pc, #4]	@ (20040d28 <lock_init+0x8>)
20040d22:	440b      	add	r3, r1
20040d24:	6003      	str	r3, [r0, #0]
20040d26:	4770      	bx	lr
20040d28:	20041f48 	.word	0x20041f48

20040d2c <runtime_init_mutex>:
20040d2c:	b570      	push	{r4, r5, r6, lr}
20040d2e:	4c10      	ldr	r4, [pc, #64]	@ (20040d70 <runtime_init_mutex+0x44>)
20040d30:	4d10      	ldr	r5, [pc, #64]	@ (20040d74 <runtime_init_mutex+0x48>)
20040d32:	42ac      	cmp	r4, r5
20040d34:	d20e      	bcs.n	20040d54 <runtime_init_mutex+0x28>
20040d36:	26ff      	movs	r6, #255	@ 0xff
20040d38:	6823      	ldr	r3, [r4, #0]
20040d3a:	b163      	cbz	r3, 20040d56 <runtime_init_mutex+0x2a>
20040d3c:	f7ff fd1a 	bl	20040774 <next_striped_spin_lock_num>
20040d40:	4601      	mov	r1, r0
20040d42:	4620      	mov	r0, r4
20040d44:	f7ff ffec 	bl	20040d20 <lock_init>
20040d48:	80a6      	strh	r6, [r4, #4]
20040d4a:	f3bf 8f5f 	dmb	sy
20040d4e:	3408      	adds	r4, #8
20040d50:	42ac      	cmp	r4, r5
20040d52:	d3f1      	bcc.n	20040d38 <runtime_init_mutex+0xc>
20040d54:	bd70      	pop	{r4, r5, r6, pc}
20040d56:	f7ff fd0d 	bl	20040774 <next_striped_spin_lock_num>
20040d5a:	4601      	mov	r1, r0
20040d5c:	4620      	mov	r0, r4
20040d5e:	f7ff ffdf 	bl	20040d20 <lock_init>
20040d62:	7126      	strb	r6, [r4, #4]
20040d64:	f3bf 8f5f 	dmb	sy
20040d68:	3408      	adds	r4, #8
20040d6a:	42ac      	cmp	r4, r5
20040d6c:	d3e4      	bcc.n	20040d38 <runtime_init_mutex+0xc>
20040d6e:	bd70      	pop	{r4, r5, r6, pc}
20040d70:	20041d7c 	.word	0x20041d7c
20040d74:	20041d84 	.word	0x20041d84

20040d78 <sleep_until_callback>:
20040d78:	4b0d      	ldr	r3, [pc, #52]	@ (20040db0 <sleep_until_callback+0x38>)
20040d7a:	681a      	ldr	r2, [r3, #0]
20040d7c:	f3ef 8110 	mrs	r1, PRIMASK
20040d80:	b672      	cpsid	i
20040d82:	e8d2 cfcf 	ldaexb	ip, [r2]
20040d86:	2001      	movs	r0, #1
20040d88:	f1bc 0f00 	cmp.w	ip, #0
20040d8c:	d1f9      	bne.n	20040d82 <sleep_until_callback+0xa>
20040d8e:	e8c2 0f4c 	strexb	ip, r0, [r2]
20040d92:	f1bc 0f00 	cmp.w	ip, #0
20040d96:	d1f4      	bne.n	20040d82 <sleep_until_callback+0xa>
20040d98:	f3bf 8f5f 	dmb	sy
20040d9c:	2200      	movs	r2, #0
20040d9e:	681b      	ldr	r3, [r3, #0]
20040da0:	e8c3 2f8f 	stlb	r2, [r3]
20040da4:	f381 8810 	msr	PRIMASK, r1
20040da8:	bf40      	sev
20040daa:	2000      	movs	r0, #0
20040dac:	2100      	movs	r1, #0
20040dae:	4770      	bx	lr
20040db0:	20041fd0 	.word	0x20041fd0
20040db4:	00000000 	.word	0x00000000

20040db8 <alarm_pool_irq_handler>:
20040db8:	e92d 4ff0 	stmdb	sp!, {r4, r5, r6, r7, r8, r9, sl, fp, lr}
20040dbc:	ed2d 8b02 	vpush	{d8}
20040dc0:	b085      	sub	sp, #20
20040dc2:	f3ef 8305 	mrs	r3, IPSR
20040dc6:	b2db      	uxtb	r3, r3
20040dc8:	3b10      	subs	r3, #16
20040dca:	089a      	lsrs	r2, r3, #2
20040dcc:	bf18      	it	ne
20040dce:	2201      	movne	r2, #1
20040dd0:	f04f 0101 	mov.w	r1, #1
20040dd4:	f003 0003 	and.w	r0, r3, #3
20040dd8:	bf18      	it	ne
20040dda:	4daf      	ldrne	r5, [pc, #700]	@ (20041098 <alarm_pool_irq_handler+0x2e0>)
20040ddc:	4baf      	ldr	r3, [pc, #700]	@ (2004109c <alarm_pool_irq_handler+0x2e4>)
20040dde:	bf08      	it	eq
20040de0:	4daf      	ldreq	r5, [pc, #700]	@ (200410a0 <alarm_pool_irq_handler+0x2e8>)
20040de2:	eb00 0282 	add.w	r2, r0, r2, lsl #2
20040de6:	f853 6022 	ldr.w	r6, [r3, r2, lsl #2]
20040dea:	fa01 fb00 	lsl.w	fp, r1, r0
20040dee:	f505 5341 	add.w	r3, r5, #12352	@ 0x3040
20040df2:	ed9f 8ba7 	vldr	d8, [pc, #668]	@ 20041090 <alarm_pool_irq_handler+0x2d8>
20040df6:	9001      	str	r0, [sp, #4]
20040df8:	f8c3 b004 	str.w	fp, [r3, #4]
20040dfc:	e02e      	b.n	20040e5c <alarm_pool_irq_handler+0xa4>
20040dfe:	88b3      	ldrh	r3, [r6, #4]
20040e00:	0418      	lsls	r0, r3, #16
20040e02:	f140 8092 	bpl.w	20040f2a <alarm_pool_irq_handler+0x172>
20040e06:	79b3      	ldrb	r3, [r6, #6]
20040e08:	2b00      	cmp	r3, #0
20040e0a:	f040 80dc 	bne.w	20040fc6 <alarm_pool_irq_handler+0x20e>
20040e0e:	f9b6 1008 	ldrsh.w	r1, [r6, #8]
20040e12:	2900      	cmp	r1, #0
20040e14:	f2c0 811d 	blt.w	20041052 <alarm_pool_irq_handler+0x29a>
20040e18:	6973      	ldr	r3, [r6, #20]
20040e1a:	eb01 0141 	add.w	r1, r1, r1, lsl #1
20040e1e:	eb03 03c1 	add.w	r3, r3, r1, lsl #3
20040e22:	e9d3 4702 	ldrd	r4, r7, [r3, #8]
20040e26:	f1b7 3fff 	cmp.w	r7, #4294967295	@ 0xffffffff
20040e2a:	bf08      	it	eq
20040e2c:	f1b4 3fff 	cmpeq.w	r4, #4294967295	@ 0xffffffff
20040e30:	d00d      	beq.n	20040e4e <alarm_pool_irq_handler+0x96>
20040e32:	9b01      	ldr	r3, [sp, #4]
20040e34:	eb05 0183 	add.w	r1, r5, r3, lsl #2
20040e38:	6aab      	ldr	r3, [r5, #40]	@ 0x28
20040e3a:	690a      	ldr	r2, [r1, #16]
20040e3c:	1ad2      	subs	r2, r2, r3
20040e3e:	1ae3      	subs	r3, r4, r3
20040e40:	4293      	cmp	r3, r2
20040e42:	d303      	bcc.n	20040e4c <alarm_pool_irq_handler+0x94>
20040e44:	6a2b      	ldr	r3, [r5, #32]
20040e46:	ea13 0f0b 	tst.w	r3, fp
20040e4a:	d100      	bne.n	20040e4e <alarm_pool_irq_handler+0x96>
20040e4c:	610c      	str	r4, [r1, #16]
20040e4e:	4628      	mov	r0, r5
20040e50:	f000 fb32 	bl	200414b8 <timer_time_us_64>
20040e54:	42a0      	cmp	r0, r4
20040e56:	41b9      	sbcs	r1, r7
20040e58:	f2c0 80fb 	blt.w	20041052 <alarm_pool_irq_handler+0x29a>
20040e5c:	f9b6 3008 	ldrsh.w	r3, [r6, #8]
20040e60:	f8c5 b03c 	str.w	fp, [r5, #60]	@ 0x3c
20040e64:	2b00      	cmp	r3, #0
20040e66:	9300      	str	r3, [sp, #0]
20040e68:	dbc9      	blt.n	20040dfe <alarm_pool_irq_handler+0x46>
20040e6a:	f8d6 9014 	ldr.w	r9, [r6, #20]
20040e6e:	eb03 0a43 	add.w	sl, r3, r3, lsl #1
20040e72:	4628      	mov	r0, r5
20040e74:	eb09 07ca 	add.w	r7, r9, sl, lsl #3
20040e78:	e9d7 4802 	ldrd	r4, r8, [r7, #8]
20040e7c:	f000 fb1c 	bl	200414b8 <timer_time_us_64>
20040e80:	42a0      	cmp	r0, r4
20040e82:	eb71 0108 	sbcs.w	r1, r1, r8
20040e86:	dbba      	blt.n	20040dfe <alarm_pool_irq_handler+0x46>
20040e88:	f1b8 0f00 	cmp.w	r8, #0
20040e8c:	f2c0 80c3 	blt.w	20041016 <alarm_pool_irq_handler+0x25e>
20040e90:	e9d7 3104 	ldrd	r3, r1, [r7, #16]
20040e94:	4a83      	ldr	r2, [pc, #524]	@ (200410a4 <alarm_pool_irq_handler+0x2ec>)
20040e96:	4293      	cmp	r3, r2
20040e98:	f000 80ed 	beq.w	20041076 <alarm_pool_irq_handler+0x2be>
20040e9c:	887a      	ldrh	r2, [r7, #2]
20040e9e:	f9b6 0008 	ldrsh.w	r0, [r6, #8]
20040ea2:	b292      	uxth	r2, r2
20040ea4:	ea42 4000 	orr.w	r0, r2, r0, lsl #16
20040ea8:	4798      	blx	r3
20040eaa:	4602      	mov	r2, r0
20040eac:	460b      	mov	r3, r1
20040eae:	ea52 0103 	orrs.w	r1, r2, r3
20040eb2:	f000 80b0 	beq.w	20041016 <alarm_pool_irq_handler+0x25e>
20040eb6:	2b00      	cmp	r3, #0
20040eb8:	f280 80d1 	bge.w	2004105e <alarm_pool_irq_handler+0x2a6>
20040ebc:	ebb4 0e02 	subs.w	lr, r4, r2
20040ec0:	eb68 0803 	sbc.w	r8, r8, r3
20040ec4:	f939 303a 	ldrsh.w	r3, [r9, sl, lsl #3]
20040ec8:	e9c7 e802 	strd	lr, r8, [r7, #8]
20040ecc:	2b00      	cmp	r3, #0
20040ece:	db96      	blt.n	20040dfe <alarm_pool_irq_handler+0x46>
20040ed0:	6971      	ldr	r1, [r6, #20]
20040ed2:	eb03 0243 	add.w	r2, r3, r3, lsl #1
20040ed6:	eb01 02c2 	add.w	r2, r1, r2, lsl #3
20040eda:	e9d2 7002 	ldrd	r7, r0, [r2, #8]
20040ede:	45be      	cmp	lr, r7
20040ee0:	eb78 0c00 	sbcs.w	ip, r8, r0
20040ee4:	ea4f 0243 	mov.w	r2, r3, lsl #1
20040ee8:	db89      	blt.n	20040dfe <alarm_pool_irq_handler+0x46>
20040eea:	46b4      	mov	ip, r6
20040eec:	f82c 3f08 	strh.w	r3, [ip, #8]!
20040ef0:	e00b      	b.n	20040f0a <alarm_pool_irq_handler+0x152>
20040ef2:	f931 3032 	ldrsh.w	r3, [r1, r2, lsl #3]
20040ef6:	46a4      	mov	ip, r4
20040ef8:	2b00      	cmp	r3, #0
20040efa:	db0d      	blt.n	20040f18 <alarm_pool_irq_handler+0x160>
20040efc:	eb03 0043 	add.w	r0, r3, r3, lsl #1
20040f00:	eb01 00c0 	add.w	r0, r1, r0, lsl #3
20040f04:	005a      	lsls	r2, r3, #1
20040f06:	e9d0 7002 	ldrd	r7, r0, [r0, #8]
20040f0a:	45be      	cmp	lr, r7
20040f0c:	441a      	add	r2, r3
20040f0e:	eb78 0000 	sbcs.w	r0, r8, r0
20040f12:	eb01 04c2 	add.w	r4, r1, r2, lsl #3
20040f16:	daec      	bge.n	20040ef2 <alarm_pool_irq_handler+0x13a>
20040f18:	f829 303a 	strh.w	r3, [r9, sl, lsl #3]
20040f1c:	9b00      	ldr	r3, [sp, #0]
20040f1e:	f8ac 3000 	strh.w	r3, [ip]
20040f22:	88b3      	ldrh	r3, [r6, #4]
20040f24:	0418      	lsls	r0, r3, #16
20040f26:	f53f af6e 	bmi.w	20040e06 <alarm_pool_irq_handler+0x4e>
20040f2a:	6933      	ldr	r3, [r6, #16]
20040f2c:	f3ef 8210 	mrs	r2, PRIMASK
20040f30:	b672      	cpsid	i
20040f32:	e8d3 0fcf 	ldaexb	r0, [r3]
20040f36:	2101      	movs	r1, #1
20040f38:	2800      	cmp	r0, #0
20040f3a:	d1fa      	bne.n	20040f32 <alarm_pool_irq_handler+0x17a>
20040f3c:	e8c3 1f40 	strexb	r0, r1, [r3]
20040f40:	2800      	cmp	r0, #0
20040f42:	d1f6      	bne.n	20040f32 <alarm_pool_irq_handler+0x17a>
20040f44:	f3bf 8f5f 	dmb	sy
20040f48:	f64f 74ff 	movw	r4, #65535	@ 0xffff
20040f4c:	88b0      	ldrh	r0, [r6, #4]
20040f4e:	2300      	movs	r3, #0
20040f50:	6931      	ldr	r1, [r6, #16]
20040f52:	b200      	sxth	r0, r0
20040f54:	80b4      	strh	r4, [r6, #4]
20040f56:	e8c1 3f8f 	stlb	r3, [r1]
20040f5a:	f382 8810 	msr	PRIMASK, r2
20040f5e:	4298      	cmp	r0, r3
20040f60:	f6ff af51 	blt.w	20040e06 <alarm_pool_irq_handler+0x4e>
20040f64:	4607      	mov	r7, r0
20040f66:	46a9      	mov	r9, r5
20040f68:	6974      	ldr	r4, [r6, #20]
20040f6a:	f106 0808 	add.w	r8, r6, #8
20040f6e:	eb07 0e47 	add.w	lr, r7, r7, lsl #1
20040f72:	eb04 03ce 	add.w	r3, r4, lr, lsl #3
20040f76:	e9d3 5002 	ldrd	r5, r0, [r3, #8]
20040f7a:	f9b6 3008 	ldrsh.w	r3, [r6, #8]
20040f7e:	46c4      	mov	ip, r8
20040f80:	2b00      	cmp	r3, #0
20040f82:	db13      	blt.n	20040fac <alarm_pool_irq_handler+0x1f4>
20040f84:	46b2      	mov	sl, r6
20040f86:	9700      	str	r7, [sp, #0]
20040f88:	e004      	b.n	20040f94 <alarm_pool_irq_handler+0x1dc>
20040f8a:	f934 3036 	ldrsh.w	r3, [r4, r6, lsl #3]
20040f8e:	4694      	mov	ip, r2
20040f90:	2b00      	cmp	r3, #0
20040f92:	db09      	blt.n	20040fa8 <alarm_pool_irq_handler+0x1f0>
20040f94:	eb03 0643 	add.w	r6, r3, r3, lsl #1
20040f98:	eb04 02c6 	add.w	r2, r4, r6, lsl #3
20040f9c:	e9d2 7102 	ldrd	r7, r1, [r2, #8]
20040fa0:	42bd      	cmp	r5, r7
20040fa2:	eb70 0101 	sbcs.w	r1, r0, r1
20040fa6:	daf0      	bge.n	20040f8a <alarm_pool_irq_handler+0x1d2>
20040fa8:	4656      	mov	r6, sl
20040faa:	9f00      	ldr	r7, [sp, #0]
20040fac:	f8ac 7000 	strh.w	r7, [ip]
20040fb0:	f934 703e 	ldrsh.w	r7, [r4, lr, lsl #3]
20040fb4:	f824 303e 	strh.w	r3, [r4, lr, lsl #3]
20040fb8:	2f00      	cmp	r7, #0
20040fba:	dad8      	bge.n	20040f6e <alarm_pool_irq_handler+0x1b6>
20040fbc:	79b3      	ldrb	r3, [r6, #6]
20040fbe:	464d      	mov	r5, r9
20040fc0:	2b00      	cmp	r3, #0
20040fc2:	f43f af24 	beq.w	20040e0e <alarm_pool_irq_handler+0x56>
20040fc6:	2300      	movs	r3, #0
20040fc8:	71b3      	strb	r3, [r6, #6]
20040fca:	f9b6 3008 	ldrsh.w	r3, [r6, #8]
20040fce:	f106 0808 	add.w	r8, r6, #8
20040fd2:	1c59      	adds	r1, r3, #1
20040fd4:	d03d      	beq.n	20041052 <alarm_pool_irq_handler+0x29a>
20040fd6:	4619      	mov	r1, r3
20040fd8:	6977      	ldr	r7, [r6, #20]
20040fda:	e003      	b.n	20040fe4 <alarm_pool_irq_handler+0x22c>
20040fdc:	4680      	mov	r8, r0
20040fde:	1c5a      	adds	r2, r3, #1
20040fe0:	f43f af17 	beq.w	20040e12 <alarm_pool_irq_handler+0x5a>
20040fe4:	eb03 0243 	add.w	r2, r3, r3, lsl #1
20040fe8:	eb07 00c2 	add.w	r0, r7, r2, lsl #3
20040fec:	f8b0 c002 	ldrh.w	ip, [r0, #2]
20040ff0:	461c      	mov	r4, r3
20040ff2:	f41c 4f00 	tst.w	ip, #32768	@ 0x8000
20040ff6:	469e      	mov	lr, r3
20040ff8:	f937 3032 	ldrsh.w	r3, [r7, r2, lsl #3]
20040ffc:	d0ee      	beq.n	20040fdc <alarm_pool_irq_handler+0x224>
20040ffe:	428c      	cmp	r4, r1
20041000:	ed80 8b02 	vstr	d8, [r0, #8]
20041004:	d005      	beq.n	20041012 <alarm_pool_irq_handler+0x25a>
20041006:	f8a8 3000 	strh.w	r3, [r8]
2004100a:	8931      	ldrh	r1, [r6, #8]
2004100c:	f827 1032 	strh.w	r1, [r7, r2, lsl #3]
20041010:	8134      	strh	r4, [r6, #8]
20041012:	4671      	mov	r1, lr
20041014:	e7e3      	b.n	20040fde <alarm_pool_irq_handler+0x226>
20041016:	f839 303a 	ldrh.w	r3, [r9, sl, lsl #3]
2004101a:	8133      	strh	r3, [r6, #8]
2004101c:	6933      	ldr	r3, [r6, #16]
2004101e:	f3ef 8210 	mrs	r2, PRIMASK
20041022:	b672      	cpsid	i
20041024:	e8d3 0fcf 	ldaexb	r0, [r3]
20041028:	2101      	movs	r1, #1
2004102a:	2800      	cmp	r0, #0
2004102c:	d1fa      	bne.n	20041024 <alarm_pool_irq_handler+0x26c>
2004102e:	e8c3 1f40 	strexb	r0, r1, [r3]
20041032:	2800      	cmp	r0, #0
20041034:	d1f6      	bne.n	20041024 <alarm_pool_irq_handler+0x26c>
20041036:	f3bf 8f5f 	dmb	sy
2004103a:	8873      	ldrh	r3, [r6, #2]
2004103c:	6931      	ldr	r1, [r6, #16]
2004103e:	f829 303a 	strh.w	r3, [r9, sl, lsl #3]
20041042:	9b00      	ldr	r3, [sp, #0]
20041044:	8073      	strh	r3, [r6, #2]
20041046:	2300      	movs	r3, #0
20041048:	e8c1 3f8f 	stlb	r3, [r1]
2004104c:	f382 8810 	msr	PRIMASK, r2
20041050:	e6d5      	b.n	20040dfe <alarm_pool_irq_handler+0x46>
20041052:	bf40      	sev
20041054:	b005      	add	sp, #20
20041056:	ecbd 8b02 	vpop	{d8}
2004105a:	e8bd 8ff0 	ldmia.w	sp!, {r4, r5, r6, r7, r8, r9, sl, fp, pc}
2004105e:	4628      	mov	r0, r5
20041060:	e9cd 2302 	strd	r2, r3, [sp, #8]
20041064:	f000 fa28 	bl	200414b8 <timer_time_us_64>
20041068:	9a02      	ldr	r2, [sp, #8]
2004106a:	9b03      	ldr	r3, [sp, #12]
2004106c:	eb10 0e02 	adds.w	lr, r0, r2
20041070:	eb43 0801 	adc.w	r8, r3, r1
20041074:	e726      	b.n	20040ec4 <alarm_pool_irq_handler+0x10c>
20041076:	4608      	mov	r0, r1
20041078:	690b      	ldr	r3, [r1, #16]
2004107a:	9102      	str	r1, [sp, #8]
2004107c:	4798      	blx	r3
2004107e:	2800      	cmp	r0, #0
20041080:	d0c9      	beq.n	20041016 <alarm_pool_irq_handler+0x25e>
20041082:	9902      	ldr	r1, [sp, #8]
20041084:	e9d1 2300 	ldrd	r2, r3, [r1]
20041088:	e711      	b.n	20040eae <alarm_pool_irq_handler+0xf6>
2004108a:	bf00      	nop
2004108c:	f3af 8000 	nop.w
20041090:	ffffffff 	.word	0xffffffff
20041094:	ffffffff 	.word	0xffffffff
20041098:	400b8000 	.word	0x400b8000
2004109c:	20041fa8 	.word	0x20041fa8
200410a0:	400b0000 	.word	0x400b0000
200410a4:	20040db9 	.word	0x20040db9

200410a8 <runtime_init_default_alarm_pool>:
200410a8:	e92d 4ff8 	stmdb	sp!, {r3, r4, r5, r6, r7, r8, r9, sl, fp, lr}
200410ac:	4c36      	ldr	r4, [pc, #216]	@ (20041188 <runtime_init_default_alarm_pool+0xe0>)
200410ae:	6925      	ldr	r5, [r4, #16]
200410b0:	b12d      	cbz	r5, 200410be <runtime_init_default_alarm_pool+0x16>
200410b2:	e8bd 4ff8 	ldmia.w	sp!, {r3, r4, r5, r6, r7, r8, r9, sl, fp, lr}
200410b6:	210a      	movs	r1, #10
200410b8:	4834      	ldr	r0, [pc, #208]	@ (2004118c <runtime_init_default_alarm_pool+0xe4>)
200410ba:	f7ff be31 	b.w	20040d20 <lock_init>
200410be:	f8df 80e4 	ldr.w	r8, [pc, #228]	@ 200411a4 <runtime_init_default_alarm_pool+0xfc>
200410c2:	2103      	movs	r1, #3
200410c4:	4640      	mov	r0, r8
200410c6:	f000 f9e5 	bl	20041494 <timer_hardware_alarm_claim>
200410ca:	2603      	movs	r6, #3
200410cc:	f8c4 800c 	str.w	r8, [r4, #12]
200410d0:	f7ff fb50 	bl	20040774 <next_striped_spin_lock_num>
200410d4:	f04f 4c50 	mov.w	ip, #3489660928	@ 0xd0000000
200410d8:	4b2d      	ldr	r3, [pc, #180]	@ (20041190 <runtime_init_default_alarm_pool+0xe8>)
200410da:	7026      	strb	r6, [r4, #0]
200410dc:	4403      	add	r3, r0
200410de:	6123      	str	r3, [r4, #16]
200410e0:	f8dc 3000 	ldr.w	r3, [ip]
200410e4:	210f      	movs	r1, #15
200410e6:	7063      	strb	r3, [r4, #1]
200410e8:	6963      	ldr	r3, [r4, #20]
200410ea:	8061      	strh	r1, [r4, #2]
200410ec:	831d      	strh	r5, [r3, #24]
200410ee:	f04f 0504 	mov.w	r5, #4
200410f2:	f8a3 5078 	strh.w	r5, [r3, #120]	@ 0x78
200410f6:	f04f 0505 	mov.w	r5, #5
200410fa:	f8a3 5090 	strh.w	r5, [r3, #144]	@ 0x90
200410fe:	f04f 0506 	mov.w	r5, #6
20041102:	f8a3 50a8 	strh.w	r5, [r3, #168]	@ 0xa8
20041106:	f04f 0507 	mov.w	r5, #7
2004110a:	210e      	movs	r1, #14
2004110c:	f64f 72ff 	movw	r2, #65535	@ 0xffff
20041110:	2708      	movs	r7, #8
20041112:	f04f 0e0a 	mov.w	lr, #10
20041116:	f8a3 50c0 	strh.w	r5, [r3, #192]	@ 0xc0
2004111a:	f04f 0901 	mov.w	r9, #1
2004111e:	f04f 0c0c 	mov.w	ip, #12
20041122:	f04f 0b02 	mov.w	fp, #2
20041126:	f04f 0a09 	mov.w	sl, #9
2004112a:	200d      	movs	r0, #13
2004112c:	f04f 050b 	mov.w	r5, #11
20041130:	f8a3 1168 	strh.w	r1, [r3, #360]	@ 0x168
20041134:	4917      	ldr	r1, [pc, #92]	@ (20041194 <runtime_init_default_alarm_pool+0xec>)
20041136:	80a2      	strh	r2, [r4, #4]
20041138:	f8a3 e108 	strh.w	lr, [r3, #264]	@ 0x108
2004113c:	60a1      	str	r1, [r4, #8]
2004113e:	f8a3 b048 	strh.w	fp, [r3, #72]	@ 0x48
20041142:	f8a3 a0f0 	strh.w	sl, [r3, #240]	@ 0xf0
20041146:	f8a3 5120 	strh.w	r5, [r3, #288]	@ 0x120
2004114a:	f8a3 c138 	strh.w	ip, [r3, #312]	@ 0x138
2004114e:	f8a3 0150 	strh.w	r0, [r3, #336]	@ 0x150
20041152:	f8a3 9030 	strh.w	r9, [r3, #48]	@ 0x30
20041156:	f8a3 6060 	strh.w	r6, [r3, #96]	@ 0x60
2004115a:	f8a3 70d8 	strh.w	r7, [r3, #216]	@ 0xd8
2004115e:	801a      	strh	r2, [r3, #0]
20041160:	4b0d      	ldr	r3, [pc, #52]	@ (20041198 <runtime_init_default_alarm_pool+0xf0>)
20041162:	4630      	mov	r0, r6
20041164:	f8c8 7020 	str.w	r7, [r8, #32]
20041168:	490c      	ldr	r1, [pc, #48]	@ (2004119c <runtime_init_default_alarm_pool+0xf4>)
2004116a:	60dc      	str	r4, [r3, #12]
2004116c:	f7ff fb58 	bl	20040820 <irq_set_exclusive_handler>
20041170:	4649      	mov	r1, r9
20041172:	4630      	mov	r0, r6
20041174:	f7ff fb3e 	bl	200407f4 <irq_set_enabled>
20041178:	4b09      	ldr	r3, [pc, #36]	@ (200411a0 <runtime_init_default_alarm_pool+0xf8>)
2004117a:	210a      	movs	r1, #10
2004117c:	641f      	str	r7, [r3, #64]	@ 0x40
2004117e:	4803      	ldr	r0, [pc, #12]	@ (2004118c <runtime_init_default_alarm_pool+0xe4>)
20041180:	e8bd 4ff8 	ldmia.w	sp!, {r3, r4, r5, r6, r7, r8, r9, sl, fp, lr}
20041184:	f7ff bdcc 	b.w	20040d20 <lock_init>
20041188:	20041d64 	.word	0x20041d64
2004118c:	20041fd0 	.word	0x20041fd0
20041190:	20041f48 	.word	0x20041f48
20041194:	0010ffff 	.word	0x0010ffff
20041198:	20041fa8 	.word	0x20041fa8
2004119c:	20040db9 	.word	0x20040db9
200411a0:	400b2000 	.word	0x400b2000
200411a4:	400b0000 	.word	0x400b0000

200411a8 <alarm_pool_add_alarm_at_force_in_context>:
200411a8:	4601      	mov	r1, r0
200411aa:	b5f0      	push	{r4, r5, r6, r7, lr}
200411ac:	6900      	ldr	r0, [r0, #16]
200411ae:	f3ef 8710 	mrs	r7, PRIMASK
200411b2:	b672      	cpsid	i
200411b4:	e8d0 5fcf 	ldaexb	r5, [r0]
200411b8:	2401      	movs	r4, #1
200411ba:	2d00      	cmp	r5, #0
200411bc:	d1fa      	bne.n	200411b4 <alarm_pool_add_alarm_at_force_in_context+0xc>
200411be:	e8c0 4f45 	strexb	r5, r4, [r0]
200411c2:	2d00      	cmp	r5, #0
200411c4:	d1f6      	bne.n	200411b4 <alarm_pool_add_alarm_at_force_in_context+0xc>
200411c6:	f3bf 8f5f 	dmb	sy
200411ca:	f9b1 e002 	ldrsh.w	lr, [r1, #2]
200411ce:	694c      	ldr	r4, [r1, #20]
200411d0:	eb0e 0c4e 	add.w	ip, lr, lr, lsl #1
200411d4:	f1be 0f00 	cmp.w	lr, #0
200411d8:	ea4f 05cc 	mov.w	r5, ip, lsl #3
200411dc:	eb04 0ccc 	add.w	ip, r4, ip, lsl #3
200411e0:	db3d      	blt.n	2004125e <alarm_pool_add_alarm_at_force_in_context+0xb6>
200411e2:	5b60      	ldrh	r0, [r4, r5]
200411e4:	2600      	movs	r6, #0
200411e6:	8048      	strh	r0, [r1, #2]
200411e8:	6908      	ldr	r0, [r1, #16]
200411ea:	e8c0 6f8f 	stlb	r6, [r0]
200411ee:	f387 8810 	msr	PRIMASK, r7
200411f2:	f8bc 0002 	ldrh.w	r0, [ip, #2]
200411f6:	e9cc 2302 	strd	r2, r3, [ip, #8]
200411fa:	3001      	adds	r0, #1
200411fc:	f3c0 000e 	ubfx	r0, r0, #0, #15
20041200:	2801      	cmp	r0, #1
20041202:	bf38      	it	cc
20041204:	2001      	movcc	r0, #1
20041206:	9b05      	ldr	r3, [sp, #20]
20041208:	f8ac 0002 	strh.w	r0, [ip, #2]
2004120c:	f8cc 3010 	str.w	r3, [ip, #16]
20041210:	9b06      	ldr	r3, [sp, #24]
20041212:	ea40 400e 	orr.w	r0, r0, lr, lsl #16
20041216:	f8cc 3014 	str.w	r3, [ip, #20]
2004121a:	690b      	ldr	r3, [r1, #16]
2004121c:	f3ef 8210 	mrs	r2, PRIMASK
20041220:	b672      	cpsid	i
20041222:	e8d3 cfcf 	ldaexb	ip, [r3]
20041226:	2701      	movs	r7, #1
20041228:	f1bc 0f00 	cmp.w	ip, #0
2004122c:	d1f9      	bne.n	20041222 <alarm_pool_add_alarm_at_force_in_context+0x7a>
2004122e:	e8c3 7f4c 	strexb	ip, r7, [r3]
20041232:	f1bc 0f00 	cmp.w	ip, #0
20041236:	d1f4      	bne.n	20041222 <alarm_pool_add_alarm_at_force_in_context+0x7a>
20041238:	f3bf 8f5f 	dmb	sy
2004123c:	888b      	ldrh	r3, [r1, #4]
2004123e:	5363      	strh	r3, [r4, r5]
20041240:	f8a1 e004 	strh.w	lr, [r1, #4]
20041244:	690b      	ldr	r3, [r1, #16]
20041246:	e8c3 6f8f 	stlb	r6, [r3]
2004124a:	f382 8810 	msr	PRIMASK, r2
2004124e:	2201      	movs	r2, #1
20041250:	68cb      	ldr	r3, [r1, #12]
20041252:	7809      	ldrb	r1, [r1, #0]
20041254:	f503 5301 	add.w	r3, r3, #8256	@ 0x2040
20041258:	408a      	lsls	r2, r1
2004125a:	605a      	str	r2, [r3, #4]
2004125c:	bdf0      	pop	{r4, r5, r6, r7, pc}
2004125e:	2300      	movs	r3, #0
20041260:	690a      	ldr	r2, [r1, #16]
20041262:	e8c2 3f8f 	stlb	r3, [r2]
20041266:	f387 8810 	msr	PRIMASK, r7
2004126a:	f04f 30ff 	mov.w	r0, #4294967295	@ 0xffffffff
2004126e:	bdf0      	pop	{r4, r5, r6, r7, pc}

20041270 <alarm_pool_cancel_alarm>:
20041270:	4603      	mov	r3, r0
20041272:	8940      	ldrh	r0, [r0, #10]
20041274:	ebb0 4f21 	cmp.w	r0, r1, asr #16
20041278:	dd37      	ble.n	200412ea <alarm_pool_cancel_alarm+0x7a>
2004127a:	6958      	ldr	r0, [r3, #20]
2004127c:	140a      	asrs	r2, r1, #16
2004127e:	eb02 0242 	add.w	r2, r2, r2, lsl #1
20041282:	b510      	push	{r4, lr}
20041284:	eb00 00c2 	add.w	r0, r0, r2, lsl #3
20041288:	691c      	ldr	r4, [r3, #16]
2004128a:	f3ef 8c10 	mrs	ip, PRIMASK
2004128e:	b672      	cpsid	i
20041290:	e8d4 efcf 	ldaexb	lr, [r4]
20041294:	2201      	movs	r2, #1
20041296:	f1be 0f00 	cmp.w	lr, #0
2004129a:	d1f9      	bne.n	20041290 <alarm_pool_cancel_alarm+0x20>
2004129c:	e8c4 2f4e 	strexb	lr, r2, [r4]
200412a0:	f1be 0f00 	cmp.w	lr, #0
200412a4:	d1f4      	bne.n	20041290 <alarm_pool_cancel_alarm+0x20>
200412a6:	f3bf 8f5f 	dmb	sy
200412aa:	8842      	ldrh	r2, [r0, #2]
200412ac:	b289      	uxth	r1, r1
200412ae:	b292      	uxth	r2, r2
200412b0:	428a      	cmp	r2, r1
200412b2:	d007      	beq.n	200412c4 <alarm_pool_cancel_alarm+0x54>
200412b4:	2200      	movs	r2, #0
200412b6:	691b      	ldr	r3, [r3, #16]
200412b8:	e8c3 2f8f 	stlb	r2, [r3]
200412bc:	f38c 8810 	msr	PRIMASK, ip
200412c0:	2000      	movs	r0, #0
200412c2:	bd10      	pop	{r4, pc}
200412c4:	f442 4200 	orr.w	r2, r2, #32768	@ 0x8000
200412c8:	8042      	strh	r2, [r0, #2]
200412ca:	2101      	movs	r1, #1
200412cc:	2200      	movs	r2, #0
200412ce:	6918      	ldr	r0, [r3, #16]
200412d0:	7199      	strb	r1, [r3, #6]
200412d2:	e8c0 2f8f 	stlb	r2, [r0]
200412d6:	f38c 8810 	msr	PRIMASK, ip
200412da:	781c      	ldrb	r4, [r3, #0]
200412dc:	68da      	ldr	r2, [r3, #12]
200412de:	4608      	mov	r0, r1
200412e0:	f502 5301 	add.w	r3, r2, #8256	@ 0x2040
200412e4:	40a1      	lsls	r1, r4
200412e6:	6059      	str	r1, [r3, #4]
200412e8:	bd10      	pop	{r4, pc}
200412ea:	2000      	movs	r0, #0
200412ec:	4770      	bx	lr
200412ee:	bf00      	nop

200412f0 <sleep_until>:
200412f0:	e92d 41f0 	stmdb	sp!, {r4, r5, r6, r7, r8, lr}
200412f4:	1f86      	subs	r6, r0, #6
200412f6:	f141 35ff 	adc.w	r5, r1, #4294967295	@ 0xffffffff
200412fa:	42b0      	cmp	r0, r6
200412fc:	eb71 0305 	sbcs.w	r3, r1, r5
20041300:	bf38      	it	cc
20041302:	2600      	movcc	r6, #0
20041304:	b082      	sub	sp, #8
20041306:	bf38      	it	cc
20041308:	4635      	movcc	r5, r6
2004130a:	4604      	mov	r4, r0
2004130c:	460f      	mov	r7, r1
2004130e:	f000 f8db 	bl	200414c8 <time_us_64>
20041312:	1a30      	subs	r0, r6, r0
20041314:	eb65 0301 	sbc.w	r3, r5, r1
20041318:	2801      	cmp	r0, #1
2004131a:	f173 0300 	sbcs.w	r3, r3, #0
2004131e:	da06      	bge.n	2004132e <sleep_until+0x3e>
20041320:	4620      	mov	r0, r4
20041322:	4639      	mov	r1, r7
20041324:	b002      	add	sp, #8
20041326:	e8bd 41f0 	ldmia.w	sp!, {r4, r5, r6, r7, r8, lr}
2004132a:	f000 b8d7 	b.w	200414dc <busy_wait_until>
2004132e:	f000 f8cb 	bl	200414c8 <time_us_64>
20041332:	4286      	cmp	r6, r0
20041334:	eb65 0101 	sbc.w	r1, r5, r1
20041338:	2900      	cmp	r1, #0
2004133a:	db0a      	blt.n	20041352 <sleep_until+0x62>
2004133c:	2100      	movs	r1, #0
2004133e:	4b17      	ldr	r3, [pc, #92]	@ (2004139c <sleep_until+0xac>)
20041340:	4632      	mov	r2, r6
20041342:	9300      	str	r3, [sp, #0]
20041344:	4816      	ldr	r0, [pc, #88]	@ (200413a0 <sleep_until+0xb0>)
20041346:	462b      	mov	r3, r5
20041348:	9101      	str	r1, [sp, #4]
2004134a:	f7ff ff2d 	bl	200411a8 <alarm_pool_add_alarm_at_force_in_context>
2004134e:	2800      	cmp	r0, #0
20041350:	dbe6      	blt.n	20041320 <sleep_until+0x30>
20041352:	f04f 0c00 	mov.w	ip, #0
20041356:	4813      	ldr	r0, [pc, #76]	@ (200413a4 <sleep_until+0xb4>)
20041358:	4a13      	ldr	r2, [pc, #76]	@ (200413a8 <sleep_until+0xb8>)
2004135a:	6a43      	ldr	r3, [r0, #36]	@ 0x24
2004135c:	429d      	cmp	r5, r3
2004135e:	d804      	bhi.n	2004136a <sleep_until+0x7a>
20041360:	6a81      	ldr	r1, [r0, #40]	@ 0x28
20041362:	42b1      	cmp	r1, r6
20041364:	d2dc      	bcs.n	20041320 <sleep_until+0x30>
20041366:	429d      	cmp	r5, r3
20041368:	d1da      	bne.n	20041320 <sleep_until+0x30>
2004136a:	6813      	ldr	r3, [r2, #0]
2004136c:	f3ef 8110 	mrs	r1, PRIMASK
20041370:	b672      	cpsid	i
20041372:	e8d3 8fcf 	ldaexb	r8, [r3]
20041376:	f05f 0e01 	movs.w	lr, #1
2004137a:	f1b8 0f00 	cmp.w	r8, #0
2004137e:	d1f8      	bne.n	20041372 <sleep_until+0x82>
20041380:	e8c3 ef48 	strexb	r8, lr, [r3]
20041384:	f1b8 0f00 	cmp.w	r8, #0
20041388:	d1f3      	bne.n	20041372 <sleep_until+0x82>
2004138a:	f3bf 8f5f 	dmb	sy
2004138e:	6813      	ldr	r3, [r2, #0]
20041390:	e8c3 cf8f 	stlb	ip, [r3]
20041394:	f381 8810 	msr	PRIMASK, r1
20041398:	bf20      	wfe
2004139a:	e7de      	b.n	2004135a <sleep_until+0x6a>
2004139c:	20040d79 	.word	0x20040d79
200413a0:	20041d64 	.word	0x20041d64
200413a4:	400b0000 	.word	0x400b0000
200413a8:	20041fd0 	.word	0x20041fd0

200413ac <sleep_ms>:
200413ac:	b510      	push	{r4, lr}
200413ae:	4604      	mov	r4, r0
200413b0:	f000 f88a 	bl	200414c8 <time_us_64>
200413b4:	f44f 737a 	mov.w	r3, #1000	@ 0x3e8
200413b8:	f04f 3cff 	mov.w	ip, #4294967295	@ 0xffffffff
200413bc:	f06f 4200 	mvn.w	r2, #2147483648	@ 0x80000000
200413c0:	fbe4 0103 	umlal	r0, r1, r4, r3
200413c4:	e8bd 4010 	ldmia.w	sp!, {r4, lr}
200413c8:	4584      	cmp	ip, r0
200413ca:	eb72 0301 	sbcs.w	r3, r2, r1
200413ce:	bf3c      	itt	cc
200413d0:	4660      	movcc	r0, ip
200413d2:	4611      	movcc	r1, r2
200413d4:	f7ff bf8c 	b.w	200412f0 <sleep_until>

200413d8 <best_effort_wfe_or_timeout>:
200413d8:	e92d 43f0 	stmdb	sp!, {r4, r5, r6, r7, r8, r9, lr}
200413dc:	4606      	mov	r6, r0
200413de:	460d      	mov	r5, r1
200413e0:	b083      	sub	sp, #12
200413e2:	f3ef 8405 	mrs	r4, IPSR
200413e6:	b2e4      	uxtb	r4, r4
200413e8:	b13c      	cbz	r4, 200413fa <best_effort_wfe_or_timeout+0x22>
200413ea:	4b27      	ldr	r3, [pc, #156]	@ (20041488 <best_effort_wfe_or_timeout+0xb0>)
200413ec:	6a58      	ldr	r0, [r3, #36]	@ 0x24
200413ee:	42a8      	cmp	r0, r5
200413f0:	d21c      	bcs.n	2004142c <best_effort_wfe_or_timeout+0x54>
200413f2:	2000      	movs	r0, #0
200413f4:	b003      	add	sp, #12
200413f6:	e8bd 83f0 	ldmia.w	sp!, {r4, r5, r6, r7, r8, r9, pc}
200413fa:	4f24      	ldr	r7, [pc, #144]	@ (2004148c <best_effort_wfe_or_timeout+0xb4>)
200413fc:	f8d7 900c 	ldr.w	r9, [r7, #12]
20041400:	f897 8000 	ldrb.w	r8, [r7]
20041404:	4648      	mov	r0, r9
20041406:	f000 f857 	bl	200414b8 <timer_time_us_64>
2004140a:	f108 0804 	add.w	r8, r8, #4
2004140e:	f859 3028 	ldr.w	r3, [r9, r8, lsl #2]
20041412:	1a1b      	subs	r3, r3, r0
20041414:	1a30      	subs	r0, r6, r0
20041416:	eb65 0101 	sbc.w	r1, r5, r1
2004141a:	4298      	cmp	r0, r3
2004141c:	f171 0100 	sbcs.w	r1, r1, #0
20041420:	db11      	blt.n	20041446 <best_effort_wfe_or_timeout+0x6e>
20041422:	bf20      	wfe
20041424:	4b18      	ldr	r3, [pc, #96]	@ (20041488 <best_effort_wfe_or_timeout+0xb0>)
20041426:	6a58      	ldr	r0, [r3, #36]	@ 0x24
20041428:	42a8      	cmp	r0, r5
2004142a:	d3e2      	bcc.n	200413f2 <best_effort_wfe_or_timeout+0x1a>
2004142c:	6a9b      	ldr	r3, [r3, #40]	@ 0x28
2004142e:	42b3      	cmp	r3, r6
20041430:	d303      	bcc.n	2004143a <best_effort_wfe_or_timeout+0x62>
20041432:	2001      	movs	r0, #1
20041434:	b003      	add	sp, #12
20041436:	e8bd 83f0 	ldmia.w	sp!, {r4, r5, r6, r7, r8, r9, pc}
2004143a:	1b40      	subs	r0, r0, r5
2004143c:	bf18      	it	ne
2004143e:	2001      	movne	r0, #1
20041440:	b003      	add	sp, #12
20041442:	e8bd 83f0 	ldmia.w	sp!, {r4, r5, r6, r7, r8, r9, pc}
20041446:	f000 f83f 	bl	200414c8 <time_us_64>
2004144a:	4286      	cmp	r6, r0
2004144c:	eb65 0101 	sbc.w	r1, r5, r1
20041450:	2900      	cmp	r1, #0
20041452:	dbca      	blt.n	200413ea <best_effort_wfe_or_timeout+0x12>
20041454:	4b0e      	ldr	r3, [pc, #56]	@ (20041490 <best_effort_wfe_or_timeout+0xb8>)
20041456:	4638      	mov	r0, r7
20041458:	e9cd 3400 	strd	r3, r4, [sp]
2004145c:	4632      	mov	r2, r6
2004145e:	462b      	mov	r3, r5
20041460:	f7ff fea2 	bl	200411a8 <alarm_pool_add_alarm_at_force_in_context>
20041464:	1e01      	subs	r1, r0, #0
20041466:	ddc0      	ble.n	200413ea <best_effort_wfe_or_timeout+0x12>
20041468:	4b07      	ldr	r3, [pc, #28]	@ (20041488 <best_effort_wfe_or_timeout+0xb0>)
2004146a:	6a5a      	ldr	r2, [r3, #36]	@ 0x24
2004146c:	42aa      	cmp	r2, r5
2004146e:	d308      	bcc.n	20041482 <best_effort_wfe_or_timeout+0xaa>
20041470:	6a9b      	ldr	r3, [r3, #40]	@ 0x28
20041472:	42b3      	cmp	r3, r6
20041474:	d303      	bcc.n	2004147e <best_effort_wfe_or_timeout+0xa6>
20041476:	4805      	ldr	r0, [pc, #20]	@ (2004148c <best_effort_wfe_or_timeout+0xb4>)
20041478:	f7ff fefa 	bl	20041270 <alarm_pool_cancel_alarm>
2004147c:	e7b5      	b.n	200413ea <best_effort_wfe_or_timeout+0x12>
2004147e:	42aa      	cmp	r2, r5
20041480:	d1f9      	bne.n	20041476 <best_effort_wfe_or_timeout+0x9e>
20041482:	bf20      	wfe
20041484:	e7f7      	b.n	20041476 <best_effort_wfe_or_timeout+0x9e>
20041486:	bf00      	nop
20041488:	400b0000 	.word	0x400b0000
2004148c:	20041d64 	.word	0x20041d64
20041490:	20040d79 	.word	0x20040d79

20041494 <timer_hardware_alarm_claim>:
20041494:	b410      	push	{r4}
20041496:	4b05      	ldr	r3, [pc, #20]	@ (200414ac <timer_hardware_alarm_claim+0x18>)
20041498:	4c05      	ldr	r4, [pc, #20]	@ (200414b0 <timer_hardware_alarm_claim+0x1c>)
2004149a:	4a06      	ldr	r2, [pc, #24]	@ (200414b4 <timer_hardware_alarm_claim+0x20>)
2004149c:	42a0      	cmp	r0, r4
2004149e:	bf14      	ite	ne
200414a0:	4618      	movne	r0, r3
200414a2:	1c58      	addeq	r0, r3, #1
200414a4:	f85d 4b04 	ldr.w	r4, [sp], #4
200414a8:	f7ff b938 	b.w	2004071c <hw_claim_or_assert>
200414ac:	20041f70 	.word	0x20041f70
200414b0:	400b8000 	.word	0x400b8000
200414b4:	20041c88 	.word	0x20041c88

200414b8 <timer_time_us_64>:
200414b8:	4603      	mov	r3, r0
200414ba:	6a41      	ldr	r1, [r0, #36]	@ 0x24
200414bc:	460a      	mov	r2, r1
200414be:	6a98      	ldr	r0, [r3, #40]	@ 0x28
200414c0:	6a59      	ldr	r1, [r3, #36]	@ 0x24
200414c2:	428a      	cmp	r2, r1
200414c4:	d1fa      	bne.n	200414bc <timer_time_us_64+0x4>
200414c6:	4770      	bx	lr

200414c8 <time_us_64>:
200414c8:	4b03      	ldr	r3, [pc, #12]	@ (200414d8 <time_us_64+0x10>)
200414ca:	6a59      	ldr	r1, [r3, #36]	@ 0x24
200414cc:	460a      	mov	r2, r1
200414ce:	6a98      	ldr	r0, [r3, #40]	@ 0x28
200414d0:	6a59      	ldr	r1, [r3, #36]	@ 0x24
200414d2:	4291      	cmp	r1, r2
200414d4:	d1fa      	bne.n	200414cc <time_us_64+0x4>
200414d6:	4770      	bx	lr
200414d8:	400b0000 	.word	0x400b0000

200414dc <busy_wait_until>:
200414dc:	4a07      	ldr	r2, [pc, #28]	@ (200414fc <busy_wait_until+0x20>)
200414de:	6a53      	ldr	r3, [r2, #36]	@ 0x24
200414e0:	4299      	cmp	r1, r3
200414e2:	d8fc      	bhi.n	200414de <busy_wait_until+0x2>
200414e4:	4299      	cmp	r1, r3
200414e6:	d107      	bne.n	200414f8 <busy_wait_until+0x1c>
200414e8:	4b04      	ldr	r3, [pc, #16]	@ (200414fc <busy_wait_until+0x20>)
200414ea:	e002      	b.n	200414f2 <busy_wait_until+0x16>
200414ec:	6a5a      	ldr	r2, [r3, #36]	@ 0x24
200414ee:	4291      	cmp	r1, r2
200414f0:	d102      	bne.n	200414f8 <busy_wait_until+0x1c>
200414f2:	6a9a      	ldr	r2, [r3, #40]	@ 0x28
200414f4:	4282      	cmp	r2, r0
200414f6:	d3f9      	bcc.n	200414ec <busy_wait_until+0x10>
200414f8:	4770      	bx	lr
200414fa:	bf00      	nop
200414fc:	400b0000 	.word	0x400b0000

20041500 <clock_configure_undivided>:
20041500:	eb00 0c40 	add.w	ip, r0, r0, lsl #1
20041504:	ea4f 0c8c 	mov.w	ip, ip, lsl #2
20041508:	f10c 4c80 	add.w	ip, ip, #1073741824	@ 0x40000000
2004150c:	f50c 3c80 	add.w	ip, ip, #65536	@ 0x10000
20041510:	b5f0      	push	{r4, r5, r6, r7, lr}
20041512:	4616      	mov	r6, r2
20041514:	f8dc 2004 	ldr.w	r2, [ip, #4]
20041518:	1f05      	subs	r5, r0, #4
2004151a:	f5b2 3f80 	cmp.w	r2, #65536	@ 0x10000
2004151e:	bf38      	it	cc
20041520:	f44f 3280 	movcc.w	r2, #65536	@ 0x10000
20041524:	b2ed      	uxtb	r5, r5
20041526:	bf38      	it	cc
20041528:	f8cc 2004 	strcc.w	r2, [ip, #4]
2004152c:	2d01      	cmp	r5, #1
2004152e:	d92a      	bls.n	20041586 <clock_configure_undivided+0x86>
20041530:	f44f 6700 	mov.w	r7, #2048	@ 0x800
20041534:	4c25      	ldr	r4, [pc, #148]	@ (200415cc <clock_configure_undivided+0xcc>)
20041536:	f50c 5240 	add.w	r2, ip, #12288	@ 0x3000
2004153a:	6017      	str	r7, [r2, #0]
2004153c:	f854 2020 	ldr.w	r2, [r4, r0, lsl #2]
20041540:	b9b2      	cbnz	r2, 20041570 <clock_configure_undivided+0x70>
20041542:	f8dc 2000 	ldr.w	r2, [ip]
20041546:	2d01      	cmp	r5, #1
20041548:	ea82 1246 	eor.w	r2, r2, r6, lsl #5
2004154c:	f002 02e0 	and.w	r2, r2, #224	@ 0xe0
20041550:	f50c 5680 	add.w	r6, ip, #4096	@ 0x1000
20041554:	6032      	str	r2, [r6, #0]
20041556:	d92a      	bls.n	200415ae <clock_configure_undivided+0xae>
20041558:	f44f 6100 	mov.w	r1, #2048	@ 0x800
2004155c:	f844 3020 	str.w	r3, [r4, r0, lsl #2]
20041560:	f44f 3380 	mov.w	r3, #65536	@ 0x10000
20041564:	f50c 5200 	add.w	r2, ip, #8192	@ 0x2000
20041568:	6011      	str	r1, [r2, #0]
2004156a:	f8cc 3004 	str.w	r3, [ip, #4]
2004156e:	bdf0      	pop	{r4, r5, r6, r7, pc}
20041570:	6967      	ldr	r7, [r4, #20]
20041572:	fbb7 fef2 	udiv	lr, r7, r2
20041576:	f10e 0e01 	add.w	lr, lr, #1
2004157a:	eb0e 0e4e 	add.w	lr, lr, lr, lsl #1
2004157e:	f1be 0e03 	subs.w	lr, lr, #3
20041582:	d2fc      	bcs.n	2004157e <clock_configure_undivided+0x7e>
20041584:	e7dd      	b.n	20041542 <clock_configure_undivided+0x42>
20041586:	2901      	cmp	r1, #1
20041588:	d1d2      	bne.n	20041530 <clock_configure_undivided+0x30>
2004158a:	2403      	movs	r4, #3
2004158c:	f50c 5240 	add.w	r2, ip, #12288	@ 0x3000
20041590:	6014      	str	r4, [r2, #0]
20041592:	f8dc 2008 	ldr.w	r2, [ip, #8]
20041596:	07d2      	lsls	r2, r2, #31
20041598:	d5fb      	bpl.n	20041592 <clock_configure_undivided+0x92>
2004159a:	f8dc 2000 	ldr.w	r2, [ip]
2004159e:	4c0b      	ldr	r4, [pc, #44]	@ (200415cc <clock_configure_undivided+0xcc>)
200415a0:	ea82 1246 	eor.w	r2, r2, r6, lsl #5
200415a4:	f002 02e0 	and.w	r2, r2, #224	@ 0xe0
200415a8:	f50c 5680 	add.w	r6, ip, #4096	@ 0x1000
200415ac:	6032      	str	r2, [r6, #0]
200415ae:	2201      	movs	r2, #1
200415b0:	f8dc 5000 	ldr.w	r5, [ip]
200415b4:	404d      	eors	r5, r1
200415b6:	f005 0503 	and.w	r5, r5, #3
200415ba:	6035      	str	r5, [r6, #0]
200415bc:	fa02 f101 	lsl.w	r1, r2, r1
200415c0:	f8dc 2008 	ldr.w	r2, [ip, #8]
200415c4:	420a      	tst	r2, r1
200415c6:	d0fb      	beq.n	200415c0 <clock_configure_undivided+0xc0>
200415c8:	e7c6      	b.n	20041558 <clock_configure_undivided+0x58>
200415ca:	bf00      	nop
200415cc:	20041f74 	.word	0x20041f74

200415d0 <clock_get_hz>:
200415d0:	4b01      	ldr	r3, [pc, #4]	@ (200415d8 <clock_get_hz+0x8>)
200415d2:	f853 0020 	ldr.w	r0, [r3, r0, lsl #2]
200415d6:	4770      	bx	lr
200415d8:	20041f74 	.word	0x20041f74

200415dc <pll_init>:
200415dc:	b470      	push	{r4, r5, r6}
200415de:	9d03      	ldr	r5, [sp, #12]
200415e0:	6804      	ldr	r4, [r0, #0]
200415e2:	032d      	lsls	r5, r5, #12
200415e4:	ea45 4503 	orr.w	r5, r5, r3, lsl #16
200415e8:	4b1b      	ldr	r3, [pc, #108]	@ (20041658 <pll_init+0x7c>)
200415ea:	2c00      	cmp	r4, #0
200415ec:	fbb3 f3f1 	udiv	r3, r3, r1
200415f0:	fbb2 f6f3 	udiv	r6, r2, r3
200415f4:	db1f      	blt.n	20041636 <pll_init+0x5a>
200415f6:	4a19      	ldr	r2, [pc, #100]	@ (2004165c <pll_init+0x80>)
200415f8:	4b19      	ldr	r3, [pc, #100]	@ (20041660 <pll_init+0x84>)
200415fa:	4290      	cmp	r0, r2
200415fc:	bf14      	ite	ne
200415fe:	f44f 4280 	movne.w	r2, #16384	@ 0x4000
20041602:	f44f 4200 	moveq.w	r2, #32768	@ 0x8000
20041606:	4c17      	ldr	r4, [pc, #92]	@ (20041664 <pll_init+0x88>)
20041608:	601a      	str	r2, [r3, #0]
2004160a:	f503 5380 	add.w	r3, r3, #4096	@ 0x1000
2004160e:	601a      	str	r2, [r3, #0]
20041610:	68a3      	ldr	r3, [r4, #8]
20041612:	ea32 0303 	bics.w	r3, r2, r3
20041616:	d1fb      	bne.n	20041610 <pll_init+0x34>
20041618:	2221      	movs	r2, #33	@ 0x21
2004161a:	f500 5340 	add.w	r3, r0, #12288	@ 0x3000
2004161e:	3304      	adds	r3, #4
20041620:	6001      	str	r1, [r0, #0]
20041622:	6086      	str	r6, [r0, #8]
20041624:	601a      	str	r2, [r3, #0]
20041626:	6802      	ldr	r2, [r0, #0]
20041628:	2a00      	cmp	r2, #0
2004162a:	dafc      	bge.n	20041626 <pll_init+0x4a>
2004162c:	2208      	movs	r2, #8
2004162e:	60c5      	str	r5, [r0, #12]
20041630:	601a      	str	r2, [r3, #0]
20041632:	bc70      	pop	{r4, r5, r6}
20041634:	4770      	bx	lr
20041636:	6803      	ldr	r3, [r0, #0]
20041638:	f003 033f 	and.w	r3, r3, #63	@ 0x3f
2004163c:	428b      	cmp	r3, r1
2004163e:	d1da      	bne.n	200415f6 <pll_init+0x1a>
20041640:	6883      	ldr	r3, [r0, #8]
20041642:	f3c3 030b 	ubfx	r3, r3, #0, #12
20041646:	42b3      	cmp	r3, r6
20041648:	d1d5      	bne.n	200415f6 <pll_init+0x1a>
2004164a:	68c3      	ldr	r3, [r0, #12]
2004164c:	f403 23ee 	and.w	r3, r3, #487424	@ 0x77000
20041650:	42ab      	cmp	r3, r5
20041652:	d1d0      	bne.n	200415f6 <pll_init+0x1a>
20041654:	e7ed      	b.n	20041632 <pll_init+0x56>
20041656:	bf00      	nop
20041658:	00b71b00 	.word	0x00b71b00
2004165c:	40058000 	.word	0x40058000
20041660:	40022000 	.word	0x40022000
20041664:	40020000 	.word	0x40020000

20041668 <tick_start>:
20041668:	2301      	movs	r3, #1
2004166a:	eb00 0040 	add.w	r0, r0, r0, lsl #1
2004166e:	0080      	lsls	r0, r0, #2
20041670:	f100 4080 	add.w	r0, r0, #1073741824	@ 0x40000000
20041674:	f500 1084 	add.w	r0, r0, #1081344	@ 0x108000
20041678:	6041      	str	r1, [r0, #4]
2004167a:	6003      	str	r3, [r0, #0]
2004167c:	4770      	bx	lr
2004167e:	bf00      	nop

20041680 <rom_func_lookup>:
20041680:	2300      	movs	r3, #0
20041682:	8adb      	ldrh	r3, [r3, #22]
20041684:	2200      	movs	r2, #0
20041686:	e842 f200 	tt	r2, r2
2004168a:	0252      	lsls	r2, r2, #9
2004168c:	d401      	bmi.n	20041692 <rom_func_lookup+0x12>
2004168e:	2110      	movs	r1, #16
20041690:	4718      	bx	r3
20041692:	2104      	movs	r1, #4
20041694:	4718      	bx	r3
20041696:	bf00      	nop

20041698 <runtime_init_bootrom_locking_enable>:
20041698:	4a03      	ldr	r2, [pc, #12]	@ (200416a8 <runtime_init_bootrom_locking_enable+0x10>)
2004169a:	f8d2 3828 	ldr.w	r3, [r2, #2088]	@ 0x828
2004169e:	2b00      	cmp	r3, #0
200416a0:	d0fb      	beq.n	2004169a <runtime_init_bootrom_locking_enable+0x2>
200416a2:	f3bf 8f5f 	dmb	sy
200416a6:	4770      	bx	lr
200416a8:	400e0000 	.word	0x400e0000

200416ac <runtime_init_boot_locks_reset>:
200416ac:	2100      	movs	r1, #0
200416ae:	4b04      	ldr	r3, [pc, #16]	@ (200416c0 <runtime_init_boot_locks_reset+0x14>)
200416b0:	4a04      	ldr	r2, [pc, #16]	@ (200416c4 <runtime_init_boot_locks_reset+0x18>)
200416b2:	f3bf 8f5f 	dmb	sy
200416b6:	f843 1b04 	str.w	r1, [r3], #4
200416ba:	4293      	cmp	r3, r2
200416bc:	d1f9      	bne.n	200416b2 <runtime_init_boot_locks_reset+0x6>
200416be:	4770      	bx	lr
200416c0:	400e080c 	.word	0x400e080c
200416c4:	400e082c 	.word	0x400e082c

200416c8 <xosc_init>:
200416c8:	b410      	push	{r4}
200416ca:	f44f 708d 	mov.w	r0, #282	@ 0x11a
200416ce:	f44f 642a 	mov.w	r4, #2720	@ 0xaa0
200416d2:	4a06      	ldr	r2, [pc, #24]	@ (200416ec <xosc_init+0x24>)
200416d4:	4b06      	ldr	r3, [pc, #24]	@ (200416f0 <xosc_init+0x28>)
200416d6:	4907      	ldr	r1, [pc, #28]	@ (200416f4 <xosc_init+0x2c>)
200416d8:	6014      	str	r4, [r2, #0]
200416da:	60d0      	str	r0, [r2, #12]
200416dc:	6019      	str	r1, [r3, #0]
200416de:	6853      	ldr	r3, [r2, #4]
200416e0:	2b00      	cmp	r3, #0
200416e2:	dafc      	bge.n	200416de <xosc_init+0x16>
200416e4:	f85d 4b04 	ldr.w	r4, [sp], #4
200416e8:	4770      	bx	lr
200416ea:	bf00      	nop
200416ec:	40048000 	.word	0x40048000
200416f0:	4004a000 	.word	0x4004a000
200416f4:	00fab000 	.word	0x00fab000

200416f8 <first_per_core_initializer>:
200416f8:	4770      	bx	lr
200416fa:	bf00      	nop

200416fc <hard_assertion_failure>:
200416fc:	b508      	push	{r3, lr}
200416fe:	4801      	ldr	r0, [pc, #4]	@ (20041704 <hard_assertion_failure+0x8>)
20041700:	f7fe fff4 	bl	200406ec <panic>
20041704:	20041cac 	.word	0x20041cac

20041708 <runtime_run_initializers>:
20041708:	b538      	push	{r3, r4, r5, lr}
2004170a:	4c05      	ldr	r4, [pc, #20]	@ (20041720 <runtime_run_initializers+0x18>)
2004170c:	4d05      	ldr	r5, [pc, #20]	@ (20041724 <runtime_run_initializers+0x1c>)
2004170e:	42ac      	cmp	r4, r5
20041710:	d204      	bcs.n	2004171c <runtime_run_initializers+0x14>
20041712:	f854 3b04 	ldr.w	r3, [r4], #4
20041716:	4798      	blx	r3
20041718:	42ac      	cmp	r4, r5
2004171a:	d3fa      	bcc.n	20041712 <runtime_run_initializers+0xa>
2004171c:	bd38      	pop	{r3, r4, r5, pc}
2004171e:	bf00      	nop
20041720:	20041d84 	.word	0x20041d84
20041724:	20041dbc 	.word	0x20041dbc

20041728 <runtime_init_early_resets>:
20041728:	b410      	push	{r4}
2004172a:	4807      	ldr	r0, [pc, #28]	@ (20041748 <runtime_init_early_resets+0x20>)
2004172c:	4c07      	ldr	r4, [pc, #28]	@ (2004174c <runtime_init_early_resets+0x24>)
2004172e:	4b08      	ldr	r3, [pc, #32]	@ (20041750 <runtime_init_early_resets+0x28>)
20041730:	4a08      	ldr	r2, [pc, #32]	@ (20041754 <runtime_init_early_resets+0x2c>)
20041732:	4909      	ldr	r1, [pc, #36]	@ (20041758 <runtime_init_early_resets+0x30>)
20041734:	6004      	str	r4, [r0, #0]
20041736:	601a      	str	r2, [r3, #0]
20041738:	688b      	ldr	r3, [r1, #8]
2004173a:	ea32 0303 	bics.w	r3, r2, r3
2004173e:	d1fb      	bne.n	20041738 <runtime_init_early_resets+0x10>
20041740:	f85d 4b04 	ldr.w	r4, [sp], #4
20041744:	4770      	bx	lr
20041746:	bf00      	nop
20041748:	40022000 	.word	0x40022000
2004174c:	efef3b7f 	.word	0xefef3b7f
20041750:	40023000 	.word	0x40023000
20041754:	03f3fff6 	.word	0x03f3fff6
20041758:	40020000 	.word	0x40020000

2004175c <runtime_init_usb_power_down>:
2004175c:	4b04      	ldr	r3, [pc, #16]	@ (20041770 <runtime_init_usb_power_down+0x14>)
2004175e:	6cdb      	ldr	r3, [r3, #76]	@ 0x4c
20041760:	f5b3 4f00 	cmp.w	r3, #32768	@ 0x8000
20041764:	d103      	bne.n	2004176e <runtime_init_usb_power_down+0x12>
20041766:	f44f 2280 	mov.w	r2, #262144	@ 0x40000
2004176a:	4b02      	ldr	r3, [pc, #8]	@ (20041774 <runtime_init_usb_power_down+0x18>)
2004176c:	64da      	str	r2, [r3, #76]	@ 0x4c
2004176e:	4770      	bx	lr
20041770:	50110000 	.word	0x50110000
20041774:	50112000 	.word	0x50112000

20041778 <runtime_init_per_core_enable_coprocessors>:
20041778:	f04f 22e0 	mov.w	r2, #3758153728	@ 0xe000e000
2004177c:	4b04      	ldr	r3, [pc, #16]	@ (20041790 <runtime_init_per_core_enable_coprocessors+0x18>)
2004177e:	f8d2 1d88 	ldr.w	r1, [r2, #3464]	@ 0xd88
20041782:	430b      	orrs	r3, r1
20041784:	f8c2 3d88 	str.w	r3, [r2, #3464]	@ 0xd88
20041788:	ee10 0430 	dcp_rcmp r0
2004178c:	4770      	bx	lr
2004178e:	bf00      	nop
20041790:	00300303 	.word	0x00300303

20041794 <runtime_init_post_clock_resets>:
20041794:	f06f 4160 	mvn.w	r1, #3758096384	@ 0xe0000000
20041798:	4b04      	ldr	r3, [pc, #16]	@ (200417ac <runtime_init_post_clock_resets+0x18>)
2004179a:	4a05      	ldr	r2, [pc, #20]	@ (200417b0 <runtime_init_post_clock_resets+0x1c>)
2004179c:	6019      	str	r1, [r3, #0]
2004179e:	6893      	ldr	r3, [r2, #8]
200417a0:	43db      	mvns	r3, r3
200417a2:	f033 4360 	bics.w	r3, r3, #3758096384	@ 0xe0000000
200417a6:	d1fa      	bne.n	2004179e <runtime_init_post_clock_resets+0xa>
200417a8:	4770      	bx	lr
200417aa:	bf00      	nop
200417ac:	40023000 	.word	0x40023000
200417b0:	40020000 	.word	0x40020000

200417b4 <runtime_init_per_core_bootrom_reset>:
200417b4:	b510      	push	{r4, lr}
200417b6:	f245 2053 	movw	r0, #21075	@ 0x5253
200417ba:	f7ff ff61 	bl	20041680 <rom_func_lookup>
200417be:	e8bd 4010 	ldmia.w	sp!, {r4, lr}
200417c2:	4603      	mov	r3, r0
200417c4:	2001      	movs	r0, #1
200417c6:	4718      	bx	r3

200417c8 <runtime_init_spin_locks_reset>:
200417c8:	f7fe bfe8 	b.w	2004079c <spin_locks_reset>

200417cc <runtime_init_clocks>:
200417cc:	2300      	movs	r3, #0
200417ce:	b570      	push	{r4, r5, r6, lr}
200417d0:	4c2b      	ldr	r4, [pc, #172]	@ (20041880 <runtime_init_clocks+0xb4>)
200417d2:	b082      	sub	sp, #8
200417d4:	f8c4 3084 	str.w	r3, [r4, #132]	@ 0x84
200417d8:	f7ff ff76 	bl	200416c8 <xosc_init>
200417dc:	2201      	movs	r2, #1
200417de:	4b29      	ldr	r3, [pc, #164]	@ (20041884 <runtime_init_clocks+0xb8>)
200417e0:	63da      	str	r2, [r3, #60]	@ 0x3c
200417e2:	6c63      	ldr	r3, [r4, #68]	@ 0x44
200417e4:	2b01      	cmp	r3, #1
200417e6:	d1fc      	bne.n	200417e2 <runtime_init_clocks+0x16>
200417e8:	2103      	movs	r1, #3
200417ea:	4a26      	ldr	r2, [pc, #152]	@ (20041884 <runtime_init_clocks+0xb8>)
200417ec:	4b24      	ldr	r3, [pc, #144]	@ (20041880 <runtime_init_clocks+0xb4>)
200417ee:	6311      	str	r1, [r2, #48]	@ 0x30
200417f0:	6b9c      	ldr	r4, [r3, #56]	@ 0x38
200417f2:	2c01      	cmp	r4, #1
200417f4:	d1fc      	bne.n	200417f0 <runtime_init_clocks+0x24>
200417f6:	2602      	movs	r6, #2
200417f8:	2505      	movs	r5, #5
200417fa:	4621      	mov	r1, r4
200417fc:	2305      	movs	r3, #5
200417fe:	4a22      	ldr	r2, [pc, #136]	@ (20041888 <runtime_init_clocks+0xbc>)
20041800:	4822      	ldr	r0, [pc, #136]	@ (2004188c <runtime_init_clocks+0xc0>)
20041802:	9600      	str	r6, [sp, #0]
20041804:	f7ff feea 	bl	200415dc <pll_init>
20041808:	4621      	mov	r1, r4
2004180a:	462b      	mov	r3, r5
2004180c:	4a20      	ldr	r2, [pc, #128]	@ (20041890 <runtime_init_clocks+0xc4>)
2004180e:	4821      	ldr	r0, [pc, #132]	@ (20041894 <runtime_init_clocks+0xc8>)
20041810:	9500      	str	r5, [sp, #0]
20041812:	f7ff fee3 	bl	200415dc <pll_init>
20041816:	2200      	movs	r2, #0
20041818:	2004      	movs	r0, #4
2004181a:	4631      	mov	r1, r6
2004181c:	4b1e      	ldr	r3, [pc, #120]	@ (20041898 <runtime_init_clocks+0xcc>)
2004181e:	f7ff fe6f 	bl	20041500 <clock_configure_undivided>
20041822:	4621      	mov	r1, r4
20041824:	4628      	mov	r0, r5
20041826:	2200      	movs	r2, #0
20041828:	4b1c      	ldr	r3, [pc, #112]	@ (2004189c <runtime_init_clocks+0xd0>)
2004182a:	f7ff fe69 	bl	20041500 <clock_configure_undivided>
2004182e:	2200      	movs	r2, #0
20041830:	2008      	movs	r0, #8
20041832:	4611      	mov	r1, r2
20041834:	4b1a      	ldr	r3, [pc, #104]	@ (200418a0 <runtime_init_clocks+0xd4>)
20041836:	f7ff fe63 	bl	20041500 <clock_configure_undivided>
2004183a:	2200      	movs	r2, #0
2004183c:	2009      	movs	r0, #9
2004183e:	4611      	mov	r1, r2
20041840:	4b17      	ldr	r3, [pc, #92]	@ (200418a0 <runtime_init_clocks+0xd4>)
20041842:	f7ff fe5d 	bl	20041500 <clock_configure_undivided>
20041846:	2200      	movs	r2, #0
20041848:	2006      	movs	r0, #6
2004184a:	4611      	mov	r1, r2
2004184c:	4b13      	ldr	r3, [pc, #76]	@ (2004189c <runtime_init_clocks+0xd0>)
2004184e:	f7ff fe57 	bl	20041500 <clock_configure_undivided>
20041852:	2200      	movs	r2, #0
20041854:	4b11      	ldr	r3, [pc, #68]	@ (2004189c <runtime_init_clocks+0xd0>)
20041856:	2007      	movs	r0, #7
20041858:	4611      	mov	r1, r2
2004185a:	f7ff fe51 	bl	20041500 <clock_configure_undivided>
2004185e:	2004      	movs	r0, #4
20041860:	f7ff feb6 	bl	200415d0 <clock_get_hz>
20041864:	2400      	movs	r4, #0
20041866:	4b0f      	ldr	r3, [pc, #60]	@ (200418a4 <runtime_init_clocks+0xd8>)
20041868:	fba3 3500 	umull	r3, r5, r3, r0
2004186c:	0cad      	lsrs	r5, r5, #18
2004186e:	b2e0      	uxtb	r0, r4
20041870:	4629      	mov	r1, r5
20041872:	3401      	adds	r4, #1
20041874:	f7ff fef8 	bl	20041668 <tick_start>
20041878:	2c06      	cmp	r4, #6
2004187a:	d1f8      	bne.n	2004186e <runtime_init_clocks+0xa2>
2004187c:	b002      	add	sp, #8
2004187e:	bd70      	pop	{r4, r5, r6, pc}
20041880:	40010000 	.word	0x40010000
20041884:	40013000 	.word	0x40013000
20041888:	59682f00 	.word	0x59682f00
2004188c:	40050000 	.word	0x40050000
20041890:	47868c00 	.word	0x47868c00
20041894:	40058000 	.word	0x40058000
20041898:	00b71b00 	.word	0x00b71b00
2004189c:	08f0d180 	.word	0x08f0d180
200418a0:	02dc6c00 	.word	0x02dc6c00
200418a4:	431bde83 	.word	0x431bde83

200418a8 <_out_char>:
200418a8:	b900      	cbnz	r0, 200418ac <_out_char+0x4>
200418aa:	4770      	bx	lr
200418ac:	f000 b902 	b.w	20041ab4 <__wrap_putchar>

200418b0 <weak_raw_vprintf>:
200418b0:	b510      	push	{r4, lr}
200418b2:	4b09      	ldr	r3, [pc, #36]	@ (200418d8 <weak_raw_vprintf+0x28>)
200418b4:	b084      	sub	sp, #16
200418b6:	681c      	ldr	r4, [r3, #0]
200418b8:	b14c      	cbz	r4, 200418ce <weak_raw_vprintf+0x1e>
200418ba:	4603      	mov	r3, r0
200418bc:	9100      	str	r1, [sp, #0]
200418be:	f04f 32ff 	mov.w	r2, #4294967295	@ 0xffffffff
200418c2:	a903      	add	r1, sp, #12
200418c4:	4805      	ldr	r0, [pc, #20]	@ (200418dc <weak_raw_vprintf+0x2c>)
200418c6:	47a0      	blx	r4
200418c8:	2001      	movs	r0, #1
200418ca:	b004      	add	sp, #16
200418cc:	bd10      	pop	{r4, pc}
200418ce:	f000 f933 	bl	20041b38 <__wrap_puts>
200418d2:	4620      	mov	r0, r4
200418d4:	b004      	add	sp, #16
200418d6:	bd10      	pop	{r4, pc}
200418d8:	20041fa4 	.word	0x20041fa4
200418dc:	200418a9 	.word	0x200418a9

200418e0 <_exit>:
200418e0:	be00      	bkpt	0x0000
200418e2:	e7fd      	b.n	200418e0 <_exit>

200418e4 <exit>:
200418e4:	b508      	push	{r3, lr}
200418e6:	f7ff fffb 	bl	200418e0 <_exit>
200418ea:	bf00      	nop

200418ec <runtime_init>:
200418ec:	b538      	push	{r3, r4, r5, lr}
200418ee:	4c06      	ldr	r4, [pc, #24]	@ (20041908 <runtime_init+0x1c>)
200418f0:	4d06      	ldr	r5, [pc, #24]	@ (2004190c <runtime_init+0x20>)
200418f2:	f7ff ff09 	bl	20041708 <runtime_run_initializers>
200418f6:	42ac      	cmp	r4, r5
200418f8:	d204      	bcs.n	20041904 <runtime_init+0x18>
200418fa:	f854 3b04 	ldr.w	r3, [r4], #4
200418fe:	4798      	blx	r3
20041900:	42ac      	cmp	r4, r5
20041902:	d3fa      	bcc.n	200418fa <runtime_init+0xe>
20041904:	bd38      	pop	{r3, r4, r5, pc}
20041906:	bf00      	nop
20041908:	20041dbc 	.word	0x20041dbc
2004190c:	20041dbc 	.word	0x20041dbc

20041910 <stdio_out_chars_no_crlf>:
20041910:	6803      	ldr	r3, [r0, #0]
20041912:	4608      	mov	r0, r1
20041914:	4611      	mov	r1, r2
20041916:	4718      	bx	r3

20041918 <stdio_out_chars_crlf>:
20041918:	7d43      	ldrb	r3, [r0, #21]
2004191a:	e92d 47f0 	stmdb	sp!, {r4, r5, r6, r7, r8, r9, sl, lr}
2004191e:	4681      	mov	r9, r0
20041920:	460f      	mov	r7, r1
20041922:	4616      	mov	r6, r2
20041924:	2b00      	cmp	r3, #0
20041926:	d043      	beq.n	200419b0 <stdio_out_chars_crlf+0x98>
20041928:	2a00      	cmp	r2, #0
2004192a:	dd3b      	ble.n	200419a4 <stdio_out_chars_crlf+0x8c>
2004192c:	7d03      	ldrb	r3, [r0, #20]
2004192e:	2000      	movs	r0, #0
20041930:	1e4d      	subs	r5, r1, #1
20041932:	4601      	mov	r1, r0
20041934:	f815 2f01 	ldrb.w	r2, [r5, #1]!
20041938:	f8df 8084 	ldr.w	r8, [pc, #132]	@ 200419c0 <stdio_out_chars_crlf+0xa8>
2004193c:	2a0a      	cmp	r2, #10
2004193e:	f101 0401 	add.w	r4, r1, #1
20041942:	d00e      	beq.n	20041962 <stdio_out_chars_crlf+0x4a>
20041944:	42a6      	cmp	r6, r4
20041946:	d01c      	beq.n	20041982 <stdio_out_chars_crlf+0x6a>
20041948:	782b      	ldrb	r3, [r5, #0]
2004194a:	4621      	mov	r1, r4
2004194c:	f1a3 030d 	sub.w	r3, r3, #13
20041950:	fab3 f383 	clz	r3, r3
20041954:	f815 2f01 	ldrb.w	r2, [r5, #1]!
20041958:	095b      	lsrs	r3, r3, #5
2004195a:	2a0a      	cmp	r2, #10
2004195c:	f101 0401 	add.w	r4, r1, #1
20041960:	d1f0      	bne.n	20041944 <stdio_out_chars_crlf+0x2c>
20041962:	2b00      	cmp	r3, #0
20041964:	d1ee      	bne.n	20041944 <stdio_out_chars_crlf+0x2c>
20041966:	4281      	cmp	r1, r0
20041968:	eba1 0100 	sub.w	r1, r1, r0
2004196c:	4438      	add	r0, r7
2004196e:	dc1b      	bgt.n	200419a8 <stdio_out_chars_crlf+0x90>
20041970:	2102      	movs	r1, #2
20041972:	4640      	mov	r0, r8
20041974:	f8d9 3000 	ldr.w	r3, [r9]
20041978:	4798      	blx	r3
2004197a:	42a6      	cmp	r6, r4
2004197c:	d008      	beq.n	20041990 <stdio_out_chars_crlf+0x78>
2004197e:	4620      	mov	r0, r4
20041980:	e7e2      	b.n	20041948 <stdio_out_chars_crlf+0x30>
20041982:	4286      	cmp	r6, r0
20041984:	dd04      	ble.n	20041990 <stdio_out_chars_crlf+0x78>
20041986:	1a31      	subs	r1, r6, r0
20041988:	f8d9 3000 	ldr.w	r3, [r9]
2004198c:	4438      	add	r0, r7
2004198e:	4798      	blx	r3
20041990:	4437      	add	r7, r6
20041992:	f817 3c01 	ldrb.w	r3, [r7, #-1]
20041996:	f1a3 030d 	sub.w	r3, r3, #13
2004199a:	fab3 f383 	clz	r3, r3
2004199e:	095b      	lsrs	r3, r3, #5
200419a0:	f889 3014 	strb.w	r3, [r9, #20]
200419a4:	e8bd 87f0 	ldmia.w	sp!, {r4, r5, r6, r7, r8, r9, sl, pc}
200419a8:	f8d9 3000 	ldr.w	r3, [r9]
200419ac:	4798      	blx	r3
200419ae:	e7df      	b.n	20041970 <stdio_out_chars_crlf+0x58>
200419b0:	4638      	mov	r0, r7
200419b2:	f8d9 3000 	ldr.w	r3, [r9]
200419b6:	4611      	mov	r1, r2
200419b8:	e8bd 47f0 	ldmia.w	sp!, {r4, r5, r6, r7, r8, r9, sl, lr}
200419bc:	4718      	bx	r3
200419be:	bf00      	nop
200419c0:	20041d00 	.word	0x20041d00

200419c4 <stdio_put_string>:
200419c4:	e92d 47f0 	stmdb	sp!, {r4, r5, r6, r7, r8, r9, sl, lr}
200419c8:	b082      	sub	sp, #8
200419ca:	460d      	mov	r5, r1
200419cc:	4692      	mov	sl, r2
200419ce:	4699      	mov	r9, r3
200419d0:	4607      	mov	r7, r0
200419d2:	f7ff fd79 	bl	200414c8 <time_us_64>
200419d6:	f04f 36ff 	mov.w	r6, #4294967295	@ 0xffffffff
200419da:	f06f 4400 	mvn.w	r4, #2147483648	@ 0x80000000
200419de:	4a2f      	ldr	r2, [pc, #188]	@ (20041a9c <stdio_put_string+0xd8>)
200419e0:	1882      	adds	r2, r0, r2
200419e2:	f141 0300 	adc.w	r3, r1, #0
200419e6:	4296      	cmp	r6, r2
200419e8:	eb74 0103 	sbcs.w	r1, r4, r3
200419ec:	bf3c      	itt	cc
200419ee:	4632      	movcc	r2, r6
200419f0:	4623      	movcc	r3, r4
200419f2:	482b      	ldr	r0, [pc, #172]	@ (20041aa0 <stdio_put_string+0xdc>)
200419f4:	f7fe fc4e 	bl	20040294 <mutex_try_enter_block_until>
200419f8:	1c6b      	adds	r3, r5, #1
200419fa:	4680      	mov	r8, r0
200419fc:	d103      	bne.n	20041a06 <stdio_put_string+0x42>
200419fe:	4638      	mov	r0, r7
20041a00:	f000 f90a 	bl	20041c18 <strlen>
20041a04:	4605      	mov	r5, r0
20041a06:	4b27      	ldr	r3, [pc, #156]	@ (20041aa4 <stdio_put_string+0xe0>)
20041a08:	4e27      	ldr	r6, [pc, #156]	@ (20041aa8 <stdio_put_string+0xe4>)
20041a0a:	681c      	ldr	r4, [r3, #0]
20041a0c:	4b27      	ldr	r3, [pc, #156]	@ (20041aac <stdio_put_string+0xe8>)
20041a0e:	f1b9 0f00 	cmp.w	r9, #0
20041a12:	bf18      	it	ne
20041a14:	461e      	movne	r6, r3
20041a16:	b1b4      	cbz	r4, 20041a46 <stdio_put_string+0x82>
20041a18:	f1ba 0f00 	cmp.w	sl, #0
20041a1c:	d11a      	bne.n	20041a54 <stdio_put_string+0x90>
20041a1e:	f8df 9090 	ldr.w	r9, [pc, #144]	@ 20041ab0 <stdio_put_string+0xec>
20041a22:	e001      	b.n	20041a28 <stdio_put_string+0x64>
20041a24:	6924      	ldr	r4, [r4, #16]
20041a26:	b174      	cbz	r4, 20041a46 <stdio_put_string+0x82>
20041a28:	6823      	ldr	r3, [r4, #0]
20041a2a:	2b00      	cmp	r3, #0
20041a2c:	d0fa      	beq.n	20041a24 <stdio_put_string+0x60>
20041a2e:	f8d9 3000 	ldr.w	r3, [r9]
20041a32:	b10b      	cbz	r3, 20041a38 <stdio_put_string+0x74>
20041a34:	429c      	cmp	r4, r3
20041a36:	d1f5      	bne.n	20041a24 <stdio_put_string+0x60>
20041a38:	4620      	mov	r0, r4
20041a3a:	462a      	mov	r2, r5
20041a3c:	4639      	mov	r1, r7
20041a3e:	47b0      	blx	r6
20041a40:	6924      	ldr	r4, [r4, #16]
20041a42:	2c00      	cmp	r4, #0
20041a44:	d1f0      	bne.n	20041a28 <stdio_put_string+0x64>
20041a46:	f1b8 0f00 	cmp.w	r8, #0
20041a4a:	d11f      	bne.n	20041a8c <stdio_put_string+0xc8>
20041a4c:	4628      	mov	r0, r5
20041a4e:	b002      	add	sp, #8
20041a50:	e8bd 87f0 	ldmia.w	sp!, {r4, r5, r6, r7, r8, r9, sl, pc}
20041a54:	f04f 0a0a 	mov.w	sl, #10
20041a58:	f8df 9054 	ldr.w	r9, [pc, #84]	@ 20041ab0 <stdio_put_string+0xec>
20041a5c:	e002      	b.n	20041a64 <stdio_put_string+0xa0>
20041a5e:	6924      	ldr	r4, [r4, #16]
20041a60:	2c00      	cmp	r4, #0
20041a62:	d0f0      	beq.n	20041a46 <stdio_put_string+0x82>
20041a64:	6823      	ldr	r3, [r4, #0]
20041a66:	2b00      	cmp	r3, #0
20041a68:	d0f9      	beq.n	20041a5e <stdio_put_string+0x9a>
20041a6a:	f8d9 3000 	ldr.w	r3, [r9]
20041a6e:	b10b      	cbz	r3, 20041a74 <stdio_put_string+0xb0>
20041a70:	42a3      	cmp	r3, r4
20041a72:	d1f4      	bne.n	20041a5e <stdio_put_string+0x9a>
20041a74:	462a      	mov	r2, r5
20041a76:	4639      	mov	r1, r7
20041a78:	4620      	mov	r0, r4
20041a7a:	47b0      	blx	r6
20041a7c:	2201      	movs	r2, #1
20041a7e:	4620      	mov	r0, r4
20041a80:	f10d 0107 	add.w	r1, sp, #7
20041a84:	f88d a007 	strb.w	sl, [sp, #7]
20041a88:	47b0      	blx	r6
20041a8a:	e7e8      	b.n	20041a5e <stdio_put_string+0x9a>
20041a8c:	4804      	ldr	r0, [pc, #16]	@ (20041aa0 <stdio_put_string+0xdc>)
20041a8e:	f7fe fc37 	bl	20040300 <mutex_exit>
20041a92:	4628      	mov	r0, r5
20041a94:	b002      	add	sp, #8
20041a96:	e8bd 87f0 	ldmia.w	sp!, {r4, r5, r6, r7, r8, r9, sl, pc}
20041a9a:	bf00      	nop
20041a9c:	000f4240 	.word	0x000f4240
20041aa0:	20041d7c 	.word	0x20041d7c
20041aa4:	20041f9c 	.word	0x20041f9c
20041aa8:	20041911 	.word	0x20041911
20041aac:	20041919 	.word	0x20041919
20041ab0:	20041fa0 	.word	0x20041fa0

20041ab4 <__wrap_putchar>:
20041ab4:	b5f0      	push	{r4, r5, r6, r7, lr}
20041ab6:	b083      	sub	sp, #12
20041ab8:	4606      	mov	r6, r0
20041aba:	f88d 0007 	strb.w	r0, [sp, #7]
20041abe:	f7ff fd03 	bl	200414c8 <time_us_64>
20041ac2:	f04f 35ff 	mov.w	r5, #4294967295	@ 0xffffffff
20041ac6:	f06f 4400 	mvn.w	r4, #2147483648	@ 0x80000000
20041aca:	4a17      	ldr	r2, [pc, #92]	@ (20041b28 <__wrap_putchar+0x74>)
20041acc:	1882      	adds	r2, r0, r2
20041ace:	f141 0300 	adc.w	r3, r1, #0
20041ad2:	4295      	cmp	r5, r2
20041ad4:	eb74 0103 	sbcs.w	r1, r4, r3
20041ad8:	bf3c      	itt	cc
20041ada:	4623      	movcc	r3, r4
20041adc:	462a      	movcc	r2, r5
20041ade:	4813      	ldr	r0, [pc, #76]	@ (20041b2c <__wrap_putchar+0x78>)
20041ae0:	f7fe fbd8 	bl	20040294 <mutex_try_enter_block_until>
20041ae4:	4b12      	ldr	r3, [pc, #72]	@ (20041b30 <__wrap_putchar+0x7c>)
20041ae6:	4607      	mov	r7, r0
20041ae8:	681c      	ldr	r4, [r3, #0]
20041aea:	b19c      	cbz	r4, 20041b14 <__wrap_putchar+0x60>
20041aec:	4d11      	ldr	r5, [pc, #68]	@ (20041b34 <__wrap_putchar+0x80>)
20041aee:	e001      	b.n	20041af4 <__wrap_putchar+0x40>
20041af0:	6924      	ldr	r4, [r4, #16]
20041af2:	b17c      	cbz	r4, 20041b14 <__wrap_putchar+0x60>
20041af4:	6823      	ldr	r3, [r4, #0]
20041af6:	2b00      	cmp	r3, #0
20041af8:	d0fa      	beq.n	20041af0 <__wrap_putchar+0x3c>
20041afa:	682b      	ldr	r3, [r5, #0]
20041afc:	b10b      	cbz	r3, 20041b02 <__wrap_putchar+0x4e>
20041afe:	429c      	cmp	r4, r3
20041b00:	d1f6      	bne.n	20041af0 <__wrap_putchar+0x3c>
20041b02:	4620      	mov	r0, r4
20041b04:	2201      	movs	r2, #1
20041b06:	f10d 0107 	add.w	r1, sp, #7
20041b0a:	f7ff ff05 	bl	20041918 <stdio_out_chars_crlf>
20041b0e:	6924      	ldr	r4, [r4, #16]
20041b10:	2c00      	cmp	r4, #0
20041b12:	d1ef      	bne.n	20041af4 <__wrap_putchar+0x40>
20041b14:	b917      	cbnz	r7, 20041b1c <__wrap_putchar+0x68>
20041b16:	4630      	mov	r0, r6
20041b18:	b003      	add	sp, #12
20041b1a:	bdf0      	pop	{r4, r5, r6, r7, pc}
20041b1c:	4803      	ldr	r0, [pc, #12]	@ (20041b2c <__wrap_putchar+0x78>)
20041b1e:	f7fe fbef 	bl	20040300 <mutex_exit>
20041b22:	4630      	mov	r0, r6
20041b24:	b003      	add	sp, #12
20041b26:	bdf0      	pop	{r4, r5, r6, r7, pc}
20041b28:	000f4240 	.word	0x000f4240
20041b2c:	20041d7c 	.word	0x20041d7c
20041b30:	20041f9c 	.word	0x20041f9c
20041b34:	20041fa0 	.word	0x20041fa0

20041b38 <__wrap_puts>:
20041b38:	b538      	push	{r3, r4, r5, lr}
20041b3a:	4604      	mov	r4, r0
20041b3c:	f000 f86c 	bl	20041c18 <strlen>
20041b40:	2301      	movs	r3, #1
20041b42:	4605      	mov	r5, r0
20041b44:	461a      	mov	r2, r3
20041b46:	4620      	mov	r0, r4
20041b48:	4629      	mov	r1, r5
20041b4a:	f7ff ff3b 	bl	200419c4 <stdio_put_string>
20041b4e:	4b08      	ldr	r3, [pc, #32]	@ (20041b70 <__wrap_puts+0x38>)
20041b50:	681c      	ldr	r4, [r3, #0]
20041b52:	b12c      	cbz	r4, 20041b60 <__wrap_puts+0x28>
20041b54:	6863      	ldr	r3, [r4, #4]
20041b56:	b12b      	cbz	r3, 20041b64 <__wrap_puts+0x2c>
20041b58:	4798      	blx	r3
20041b5a:	6924      	ldr	r4, [r4, #16]
20041b5c:	2c00      	cmp	r4, #0
20041b5e:	d1f9      	bne.n	20041b54 <__wrap_puts+0x1c>
20041b60:	4628      	mov	r0, r5
20041b62:	bd38      	pop	{r3, r4, r5, pc}
20041b64:	6924      	ldr	r4, [r4, #16]
20041b66:	2c00      	cmp	r4, #0
20041b68:	d1f4      	bne.n	20041b54 <__wrap_puts+0x1c>
20041b6a:	4628      	mov	r0, r5
20041b6c:	bd38      	pop	{r3, r4, r5, pc}
20041b6e:	bf00      	nop
20041b70:	20041f9c 	.word	0x20041f9c

20041b74 <memset>:
20041b74:	b570      	push	{r4, r5, r6, lr}
20041b76:	0786      	lsls	r6, r0, #30
20041b78:	d047      	beq.n	20041c0a <memset+0x96>
20041b7a:	1e54      	subs	r4, r2, #1
20041b7c:	2a00      	cmp	r2, #0
20041b7e:	d03e      	beq.n	20041bfe <memset+0x8a>
20041b80:	b2ca      	uxtb	r2, r1
20041b82:	4603      	mov	r3, r0
20041b84:	e001      	b.n	20041b8a <memset+0x16>
20041b86:	3c01      	subs	r4, #1
20041b88:	d339      	bcc.n	20041bfe <memset+0x8a>
20041b8a:	f803 2b01 	strb.w	r2, [r3], #1
20041b8e:	079d      	lsls	r5, r3, #30
20041b90:	d1f9      	bne.n	20041b86 <memset+0x12>
20041b92:	2c03      	cmp	r4, #3
20041b94:	d92c      	bls.n	20041bf0 <memset+0x7c>
20041b96:	b2cd      	uxtb	r5, r1
20041b98:	2c0f      	cmp	r4, #15
20041b9a:	eb05 2505 	add.w	r5, r5, r5, lsl #8
20041b9e:	eb05 4505 	add.w	r5, r5, r5, lsl #16
20041ba2:	d935      	bls.n	20041c10 <memset+0x9c>
20041ba4:	f1a4 0c10 	sub.w	ip, r4, #16
20041ba8:	f103 0e10 	add.w	lr, r3, #16
20041bac:	461a      	mov	r2, r3
20041bae:	f02c 060f 	bic.w	r6, ip, #15
20041bb2:	ea4f 1c1c 	mov.w	ip, ip, lsr #4
20041bb6:	44b6      	add	lr, r6
20041bb8:	e9c2 5500 	strd	r5, r5, [r2]
20041bbc:	e9c2 5502 	strd	r5, r5, [r2, #8]
20041bc0:	3210      	adds	r2, #16
20041bc2:	4572      	cmp	r2, lr
20041bc4:	d1f8      	bne.n	20041bb8 <memset+0x44>
20041bc6:	f10c 0201 	add.w	r2, ip, #1
20041bca:	f014 0f0c 	tst.w	r4, #12
20041bce:	f004 0c0f 	and.w	ip, r4, #15
20041bd2:	eb03 1202 	add.w	r2, r3, r2, lsl #4
20041bd6:	d013      	beq.n	20041c00 <memset+0x8c>
20041bd8:	f1ac 0304 	sub.w	r3, ip, #4
20041bdc:	f023 0303 	bic.w	r3, r3, #3
20041be0:	3304      	adds	r3, #4
20041be2:	4413      	add	r3, r2
20041be4:	f842 5b04 	str.w	r5, [r2], #4
20041be8:	4293      	cmp	r3, r2
20041bea:	d1fb      	bne.n	20041be4 <memset+0x70>
20041bec:	f00c 0403 	and.w	r4, ip, #3
20041bf0:	b12c      	cbz	r4, 20041bfe <memset+0x8a>
20041bf2:	b2c9      	uxtb	r1, r1
20041bf4:	441c      	add	r4, r3
20041bf6:	f803 1b01 	strb.w	r1, [r3], #1
20041bfa:	42a3      	cmp	r3, r4
20041bfc:	d1fb      	bne.n	20041bf6 <memset+0x82>
20041bfe:	bd70      	pop	{r4, r5, r6, pc}
20041c00:	4664      	mov	r4, ip
20041c02:	4613      	mov	r3, r2
20041c04:	2c00      	cmp	r4, #0
20041c06:	d1f4      	bne.n	20041bf2 <memset+0x7e>
20041c08:	e7f9      	b.n	20041bfe <memset+0x8a>
20041c0a:	4603      	mov	r3, r0
20041c0c:	4614      	mov	r4, r2
20041c0e:	e7c0      	b.n	20041b92 <memset+0x1e>
20041c10:	461a      	mov	r2, r3
20041c12:	46a4      	mov	ip, r4
20041c14:	e7e0      	b.n	20041bd8 <memset+0x64>
20041c16:	bf00      	nop

20041c18 <strlen>:
20041c18:	f020 0103 	bic.w	r1, r0, #3
20041c1c:	f010 0003 	ands.w	r0, r0, #3
20041c20:	f1c0 0000 	rsb	r0, r0, #0
20041c24:	f851 3b04 	ldr.w	r3, [r1], #4
20041c28:	f100 0c04 	add.w	ip, r0, #4
20041c2c:	ea4f 0ccc 	mov.w	ip, ip, lsl #3
20041c30:	f06f 0200 	mvn.w	r2, #0
20041c34:	bf1c      	itt	ne
20041c36:	fa22 f20c 	lsrne.w	r2, r2, ip
20041c3a:	4313      	orrne	r3, r2
20041c3c:	f04f 0c01 	mov.w	ip, #1
20041c40:	ea4c 2c0c 	orr.w	ip, ip, ip, lsl #8
20041c44:	ea4c 4c0c 	orr.w	ip, ip, ip, lsl #16
20041c48:	eba3 020c 	sub.w	r2, r3, ip
20041c4c:	ea22 0203 	bic.w	r2, r2, r3
20041c50:	ea12 12cc 	ands.w	r2, r2, ip, lsl #7
20041c54:	bf04      	itt	eq
20041c56:	f851 3b04 	ldreq.w	r3, [r1], #4
20041c5a:	3004      	addeq	r0, #4
20041c5c:	d0f4      	beq.n	20041c48 <strlen+0x30>
20041c5e:	f1c2 0100 	rsb	r1, r2, #0
20041c62:	ea02 0201 	and.w	r2, r2, r1
20041c66:	fab2 f282 	clz	r2, r2
20041c6a:	f1c2 021f 	rsb	r2, r2, #31
20041c6e:	eb00 00d2 	add.w	r0, r0, r2, lsr #3
20041c72:	4770      	bx	lr
